(lp1
(lp2
(dp3
S'whole_image_condition'
p4
I00
sS'planned_disp_time'
p5
F652
sS'disp_bubbles'
p6
(lp7
(F1000
F573
tp8
a(F816
F225
tp9
a(F329
F645
tp10
asS'control_condition'
p11
I1
sS'chosen_bubble'
p12
(lp13
g9
asS'forced_fix_onset'
p14
F57.998186111450195
sS'saccade_offset'
p15
F58.87328314781189
sS'stim_onset'
p16
F58.679736137390137
sS'img'
p17
cnumpy.core.multiarray
scalar
p18
(cnumpy
dtype
p19
(S'S13'
I0
I1
tRp20
(I3
S'|'
NNNI13
I1
I0
tbS'image_140.bmp'
tRp21
sS'first_bubble'
p22
(F551
F108
tp23
sS'trial'
p24
I1
sS'num_bubbles'
p25
I3
sa(dp26
g4
I00
sg5
F645
sg6
(lp27
(F612
F260
tp28
a(F1127
F92
tp29
a(F660
F717
tp30
a(F988
F301
tp31
a(F873
F572
tp32
asg11
I1
sg12
(lp33
g30
asg14
F59.529996156692505
sg15
F60.587490081787109
sg16
F60.196439027786255
sg17
g21
sg22
g23
sg24
I1
sg25
I5
sa(dp34
g4
I00
sg5
F158
sg6
(lp35
(F279
F320
tp36
a(F333
F748
tp37
asg11
I1
sg12
(lp38
g37
asg14
F61.346719026565552
sg15
F61.729574203491211
sg16
F61.529739141464233
sg17
g21
sg22
g23
sg24
I1
sg25
I2
sa(dp39
g4
I00
sg5
F89
sg6
(lp40
(F591
F682
tp41
a(F751
F320
tp42
a(F592
F499
tp43
asg11
I1
sg12
(lp44
g41
asg14
F62.346740007400513
sg15
F62.631464004516602
sg16
F62.463073015213013
sg17
g21
sg22
g23
sg24
I1
sg25
I3
sa(dp45
g4
I00
sg5
F100
sg6
(lp46
(F1179
F436
tp47
a(F618
F860
tp48
ag42
a(F687
F99
tp49
a(F442
F578
tp50
asg11
I1
sg12
(lp51
g50
asg14
F63.296728134155273
sg15
F63.674911022186279
sg16
F63.429800987243652
sg17
g21
sg22
g23
sg24
I1
sg25
I5
sa(dp52
g4
I00
sg5
F354
sg6
(lp53
(F913
F716
tp54
a(F94
F748
tp55
a(F633
F163
tp56
a(F1153
F545
tp57
asg11
I1
sg12
(lp58
g54
asg14
F64.396743059158325
sg15
F64.983517169952393
sg16
F64.779821157455444
sg17
g21
sg22
g23
sg24
I1
sg25
I4
sa(dp59
g4
I00
sg5
F313
sg6
(lp60
(F424
F705
tp61
asg11
I1
sg12
(lp62
g61
asg14
F65.64681601524353
sg15
F66.144731044769287
sg16
F65.97982120513916
sg17
g21
sg22
g23
sg24
I1
sg25
I1
sa(dp63
g4
I00
sg5
F271
sg6
(lp64
g48
a(F1037
F185
tp65
asg11
I1
sg12
(lp66
g48
asg14
F66.780134201049805
sg15
F67.296735048294067
sg16
F67.079833984375
sg17
g21
sg22
g23
sg24
I1
sg25
I2
sa(dp67
g4
I00
sg5
F257
sg6
(lp68
(F1116
F200
tp69
asg11
I1
sg12
(lp70
g69
asg14
F68.013485193252563
sg15
F68.508963108062744
sg16
F68.29654598236084
sg17
g21
sg22
g23
sg24
I1
sg25
I1
sa(dp71
g4
I00
sg5
F226
sg6
(lp72
g8
asg11
I1
sg12
(lp73
g8
asg14
F69.16351318359375
sg15
F69.585093021392822
sg16
F69.413191080093384
sg17
g21
sg22
g23
sg24
I1
sg25
I1
sa(dp74
g4
I00
sg5
F299
sg6
(lp75
g29
a(F276
F113
tp76
asg11
I1
sg12
(lp77
g76
asg14
F70.313507080078125
sg15
F71.344914197921753
sg16
F70.646656036376953
sg17
g21
sg22
g23
sg24
I1
sg25
I2
sa(dp78
g4
I00
sg5
F40
sg6
(lp79
(F94
F404
tp80
a(F786
F131
tp81
ag57
asg11
I1
sg12
(lp82
g81
asg14
F72.096873044967651
sg15
F72.517609119415283
sg16
F72.163266181945801
sg17
g21
sg22
g23
sg24
I1
sg25
I3
sa(dp83
g4
I00
sg5
F336
sg6
(lp84
(F376
F207
tp85
a(F1046
F852
tp86
a(F1046
F390
tp87
a(F511
F390
tp88
a(F154
F310
tp89
asg11
I1
sg12
(lp90
g88
asg14
F73.130210161209106
sg15
F73.739191055297852
sg16
F73.496617078781128
sg17
g21
sg22
g23
sg24
I1
sg25
I5
sa(dp91
g4
I00
sg5
F216
sg6
(lp92
g28
asg11
I1
sg12
(lp93
g28
asg14
F74.513594150543213
sg15
F75.06905198097229
sg16
F74.763310194015503
sg17
g21
sg22
g23
sg24
I1
sg25
I1
sa(dp94
g4
I00
sg5
F77
sg6
(lp95
(F925
F201
tp96
a(F736
F632
tp97
asg11
I1
sg12
(lp98
g97
asg14
F75.663621187210083
sg15
F75.960894107818604
sg16
F75.763329982757568
sg17
g21
sg22
g23
sg24
I1
sg25
I2
sa(dp99
g4
I00
sg5
F60
sg6
(lp100
(F189
F166
tp101
asg11
I1
sg12
(lp102
g101
asg14
F76.613637208938599
sg15
F77.113017082214355
sg16
F76.696690082550049
sg17
g21
sg22
g23
sg24
I1
sg25
I1
sa(dp103
g4
I00
sg5
F154
sg6
(lp104
(F1066
F298
tp105
a(F159
F563
tp106
asg11
I1
sg12
(lp107
g106
asg14
F77.763621091842651
sg15
F78.271037101745605
sg16
F77.946671009063721
sg17
g21
sg22
g23
sg24
I1
sg25
I2
sa(dp108
g4
I00
sg5
F59
sg6
(lp109
g29
a(F724
F214
tp110
a(F475
F861
tp111
asg11
I1
sg12
(lp112
g110
asg14
F78.963666200637817
sg15
F79.676866054534912
sg16
F79.046735048294067
sg17
g21
sg22
g23
sg24
I1
sg25
I3
sa(dp113
g4
I00
sg5
F60
sg6
(lp114
(F767
F725
tp115
a(F97
F134
tp116
a(F413
F458
tp117
ag47
asg11
I1
sg12
(lp118
g117
asg14
F80.380341053009033
sg15
F80.76485800743103
sg16
F80.463388204574585
sg17
g21
sg22
g23
sg24
I1
sg25
I4
sa(dp119
g4
I00
sg5
F18
sg6
(lp120
g42
a(F173
F410
tp121
a(F878
F787
tp122
a(F1166
F687
tp123
a(F606
F580
tp124
asg11
I1
sg12
(lp125
g124
asg14
F81.463698148727417
sg15
F81.514847993850708
sg16
F81.513394117355347
sg17
g21
sg22
g23
sg24
I1
sg25
I5
sa(dp126
g4
I00
sg5
F75
sg6
(lp127
(F937
F489
tp128
a(F157
F485
tp129
a(F129
F637
tp130
asg11
I1
sg12
(lp131
g128
asg14
F82.23037314414978
sg15
F82.522517204284668
sg16
F82.330067157745361
sg17
g21
sg22
g23
sg24
I1
sg25
I3
sa(dp132
g4
I00
sg5
F182
sg6
(lp133
(F1148
F866
tp134
ag10
a(F111
F223
tp135
asg11
I1
sg12
(lp136
g10
asg14
F83.19705605506897
sg15
F83.614808082580566
sg16
F83.413421154022217
sg17
g21
sg22
g23
sg24
I1
sg25
I3
sa(dp137
g4
I00
sg5
F51
sg6
(lp138
(F171
F809
tp139
ag42
ag96
asg11
I1
sg12
(lp140
g42
asg14
F84.380417108535767
sg15
F84.674695014953613
sg16
F84.463460206985474
sg17
g21
sg22
g23
sg24
I1
sg25
I3
sa(dp141
g4
I00
sg5
F188
sg6
(lp142
g85
a(F1126
F792
tp143
a(F279
F413
tp144
a(F259
F771
tp145
ag96
asg11
I1
sg12
(lp146
g145
asg14
F85.330440044403076
sg15
F85.901118993759155
sg16
F85.546823978424072
sg17
g21
sg22
g23
sg24
I1
sg25
I5
sa(dp147
g4
I00
sg5
F101
sg6
(lp148
g115
asg11
I1
sg12
(lp149
g115
asg14
F86.630442142486572
sg15
F86.921097040176392
sg16
F86.763456106185913
sg17
g21
sg22
g23
sg24
I1
sg25
I1
sa(dp150
g4
I00
sg5
F709
sg6
(lp151
g144
a(F863
F288
tp152
a(F629
F338
tp153
asg11
I1
sg12
(lp154
g153
asg14
F87.530462026596069
sg15
F88.488381147384644
sg16
F88.263507127761841
sg17
g21
sg22
g23
sg24
I1
sg25
I3
sa(dp155
g4
I00
sg5
F179
sg6
(lp156
g43
ag152
a(F793
F802
tp157
ag32
ag56
asg11
I1
sg12
(lp158
g32
asg14
F89.080488204956055
sg15
F89.633035182952881
sg16
F89.280209064483643
sg17
g21
sg22
g23
sg24
I1
sg25
I5
sa(dp159
g4
I00
sg5
F111
sg6
(lp160
(F330
F566
tp161
a(F1087
F474
tp162
asg11
I1
sg12
(lp163
g161
asg14
F90.397180080413818
sg15
F91.032638072967529
sg16
F90.530232191085815
sg17
g21
sg22
g23
sg24
I1
sg25
I2
sa(dp164
g4
I00
sg5
F1319
sg6
(lp165
(F465
F136
tp166
ag152
ag86
a(F684
F445
tp167
asg11
I1
sg12
(lp168
g167
asg14
F91.697183132171631
sg15
F93.25075101852417
sg16
F93.046934127807617
sg17
g21
sg22
g23
sg24
I1
sg25
I4
saa(dp169
S'right_bubble'
p170
S'no_memory_task'
p171
sS'correct'
p172
g171
sS'subject_number'
p173
S'3'
sS'left_bubble'
p174
g171
sa(lp175
(dp176
g4
I00
sg5
F412
sg6
(lp177
(F979
F797
tp178
a(F776
F496
tp179
asg11
I1
sg12
(lp180
g179
asg14
F97.264013051986694
sg15
F97.934375047683716
sg16
F97.696992158889771
sg17
g18
(g19
(S'S13'
I0
I1
tRp181
(I3
S'|'
NNNI13
I1
I0
tbS'image_169.bmp'
tRp182
sg22
(F230
F803
tp183
sg24
I2
sg25
I2
sa(dp184
g4
I00
sg5
F177
sg6
(lp185
(F1060
F605
tp186
a(F688
F264
tp187
asg11
I1
sg12
(lp188
g187
asg14
F98.64729905128479
sg15
F99.102463006973267
sg16
F98.847019195556641
sg17
g182
sg22
g183
sg24
I2
sg25
I2
sa(dp189
g4
I00
sg5
F55
sg6
(lp190
(F327
F815
tp191
asg11
I1
sg12
(lp192
g191
asg14
F99.864009141921997
sg15
F100.1287829875946
sg16
F99.947027206420898
sg17
g182
sg22
g183
sg24
I2
sg25
I1
sa(dp193
g4
I00
sg5
F19
sg6
(lp194
(F607
F548
tp195
a(F444
F512
tp196
a(F817
F91
tp197
a(F954
F471
tp198
a(F562
F252
tp199
asg11
I1
sg12
(lp200
g195
asg14
F100.89729619026184
sg15
F101.13665914535522
sg16
F100.94709801673889
sg17
g182
sg22
g183
sg24
I2
sg25
I5
sa(dp201
g4
I00
sg5
F204
sg6
(lp202
(F1069
F862
tp203
a(F430
F820
tp204
a(F757
F411
tp205
a(F99
F143
tp206
a(F1178
F209
tp207
asg11
I1
sg12
(lp208
g205
asg14
F101.81401515007019
sg15
F102.24684119224548
sg16
F102.04710102081299
sg17
g182
sg22
g183
sg24
I2
sg25
I5
sa(dp209
g4
I00
sg5
F549
sg6
(lp210
(F379
F296
tp211
asg11
I1
sg12
(lp212
g211
asg14
F102.84733104705811
sg15
F103.62508702278137
sg16
F103.43042302131653
sg17
g182
sg22
g183
sg24
I2
sg25
I1
sa(dp213
g4
I00
sg5
F176
sg6
(lp214
(F704
F181
tp215
asg11
I1
sg12
(lp216
g215
asg14
F104.23071002960205
sg15
F104.61282801628113
sg16
F104.43043613433838
sg17
g182
sg22
g183
sg24
I2
sg25
I1
sa(dp217
g4
I00
sg5
F17
sg6
(lp218
(F447
F394
tp219
a(F1036
F263
tp220
asg11
I1
sg12
(lp221
g219
asg14
F105.31407308578491
sg15
F105.58872604370117
sg16
F105.36380505561829
sg17
g182
sg22
g183
sg24
I2
sg25
I2
sa(dp222
g4
I00
sg5
F177
sg6
(lp223
(F612
F739
tp224
a(F818
F749
tp225
a(F227
F187
tp226
ag199
asg11
I1
sg12
(lp227
g199
asg14
F106.29741907119751
sg15
F106.69676804542542
sg16
F106.49716114997864
sg17
g182
sg22
g183
sg24
I2
sg25
I4
sa(dp228
g4
I00
sg5
F127
sg6
(lp229
(F1081
F782
tp230
a(F517
F827
tp231
a(F654
F617
tp232
a(F188
F868
tp233
a(F1119
F264
tp234
asg11
I1
sg12
(lp235
g232
asg14
F107.41415214538574
sg15
F107.56470799446106
sg16
F107.56383419036865
sg17
g182
sg22
g183
sg24
I2
sg25
I5
sa(dp236
g4
I00
sg5
F402
sg6
(lp237
g226
a(F874
F241
tp238
a(F316
F509
tp239
ag220
asg11
I1
sg12
(lp240
g239
asg14
F108.26413321495056
sg15
F109.07093119621277
sg16
F108.69723415374756
sg17
g182
sg22
g183
sg24
I2
sg25
I4
sa(dp241
g4
I00
sg5
F68
sg6
(lp242
(F188
F737
tp243
a(F583
F378
tp244
a(F713
F542
tp245
asg11
I1
sg12
(lp246
g244
asg14
F109.73080015182495
sg15
F110.0027551651001
sg16
F109.83052921295166
sg17
g182
sg22
g183
sg24
I2
sg25
I3
sa(dp247
g4
I00
sg5
F8
sg6
(lp248
(F133
F431
tp249
a(F397
F733
tp250
a(F1002
F114
tp251
ag196
a(F783
F644
tp252
asg11
I1
sg12
(lp253
g252
asg14
F110.71413111686707
sg15
F110.92438006401062
sg16
F110.74722909927368
sg17
g182
sg22
g183
sg24
I2
sg25
I5
sa(dp254
g4
I00
sg5
F21
sg6
(lp255
(F1007
F669
tp256
a(F570
F651
tp257
a(F780
F244
tp258
asg11
I1
sg12
(lp259
g257
asg14
F111.64748620986938
sg15
F111.89075398445129
sg16
F111.69720911979675
sg17
g182
sg22
g183
sg24
I2
sg25
I3
sa(dp260
g4
I00
sg5
F17
sg6
(lp261
(F629
F864
tp262
a(F859
F573
tp263
asg11
I1
sg12
(lp264
g263
asg14
F112.58084607124329
sg15
F112.88880515098572
sg16
F112.63056516647339
sg17
g182
sg22
g183
sg24
I2
sg25
I2
sa(dp265
g4
I00
sg5
F683
sg6
(lp266
(F511
F579
tp267
ag262
asg11
I1
sg12
(lp268
g267
asg14
F113.56418704986572
sg15
F114.46878719329834
sg16
F114.28057909011841
sg17
g182
sg22
g183
sg24
I2
sg25
I2
sa(dp269
g4
I00
sg5
F4
sg6
(lp270
g197
asg11
I1
sg12
(lp271
g197
asg14
F115.11421799659729
sg15
F115.69450616836548
sg16
F115.14729905128479
sg17
g182
sg22
g183
sg24
I2
sg25
I1
sa(dp272
g4
I00
sg5
F115
sg6
(lp273
(F213
F111
tp274
ag262
ag220
a(F651
F120
tp275
a(F650
F465
tp276
asg11
I1
sg12
(lp277
g276
asg14
F116.38088512420654
sg15
F116.69699811935425
sg16
F116.53070402145386
sg17
g182
sg22
g183
sg24
I2
sg25
I5
sa(dp278
g4
I00
sg5
F31
sg6
(lp279
g262
a(F490
F693
tp280
a(F226
F396
tp281
a(F1148
F822
tp282
asg11
I1
sg12
(lp283
g280
asg14
F117.36427211761475
sg15
F117.61656999588013
sg16
F117.41395998001099
sg17
g182
sg22
g183
sg24
I2
sg25
I4
sa(dp284
g4
I00
sg5
F232
sg6
(lp285
g262
ag256
asg11
I1
sg12
(lp286
g256
asg14
F118.28094506263733
sg15
F118.74910616874695
sg16
F118.54733419418335
sg17
g182
sg22
g183
sg24
I2
sg25
I2
sa(dp287
g4
I00
sg5
F65
sg6
(lp288
g196
a(F876
F846
tp289
ag262
ag275
ag234
asg11
I1
sg12
(lp290
g196
asg14
F119.48095417022705
sg15
F119.75812005996704
sg16
F119.58071398735046
sg17
g182
sg22
g183
sg24
I2
sg25
I5
sa(dp291
g4
I00
sg5
F331
sg6
(lp292
g198
a(F352
F207
tp293
a(F1063
F160
tp294
a(F272
F713
tp295
asg11
I1
sg12
(lp296
g198
asg14
F120.53097820281982
sg15
F121.0742461681366
sg16
F120.88072919845581
sg17
g182
sg22
g183
sg24
I2
sg25
I4
sa(dp297
g4
I00
sg5
F746
sg6
(lp298
g262
ag204
a(F578
F152
tp299
a(F533
F445
tp300
a(F398
F599
tp301
asg11
I1
sg12
(lp302
g300
asg14
F121.93100118637085
sg15
F122.88055801391602
sg16
F122.69740009307861
sg17
g182
sg22
g183
sg24
I2
sg25
I5
sa(dp303
g4
I00
sg5
F154
sg6
(lp304
(F869
F415
tp305
ag186
a(F139
F220
tp306
ag203
asg11
I1
sg12
(lp307
g305
asg14
F123.56436109542847
sg15
F123.9404091835022
sg16
F123.74740815162659
sg17
g182
sg22
g183
sg24
I2
sg25
I4
sa(dp308
g4
I00
sg5
F98
sg6
(lp309
g224
a(F723
F854
tp310
ag282
asg11
I1
sg12
(lp311
g224
asg14
F124.6477210521698
sg15
F124.93864011764526
sg16
F124.76406311988831
sg17
g182
sg22
g183
sg24
I2
sg25
I3
sa(dp312
g4
I00
sg5
F158
sg6
(lp313
(F234
F551
tp314
a(F964
F573
tp315
a(F303
F349
tp316
ag310
a(F106
F683
tp317
asg11
I1
sg12
(lp318
g314
asg14
F125.61438202857971
sg15
F126.00706315040588
sg16
F125.79743814468384
sg17
g182
sg22
g183
sg24
I2
sg25
I5
sa(dp319
g4
I00
sg5
F256
sg6
(lp320
g233
ag315
ag234
ag262
ag204
asg11
I1
sg12
(lp321
g315
asg14
F126.73109602928162
sg15
F127.33606815338135
sg16
F127.01412510871887
sg17
g182
sg22
g183
sg24
I2
sg25
I5
sa(dp322
g4
I00
sg5
F204
sg6
(lp323
(F707
F743
tp324
a(F206
F471
tp325
asg11
I1
sg12
(lp326
g325
asg14
F128.06440615653992
sg15
F128.66479015350342
sg16
F128.29747605323792
sg17
g182
sg22
g183
sg24
I2
sg25
I2
sa(dp327
g4
I00
sg5
F309
sg6
(lp328
g294
a(F1129
F342
tp329
asg11
I1
sg12
(lp330
g294
asg14
F129.39778709411621
sg15
F130.13027620315552
sg16
F129.73086810112
sg17
g182
sg22
g183
sg24
I2
sg25
I2
sa(dp331
g4
I00
sg5
F531
sg6
(lp332
g226
asg11
I1
sg12
(lp333
g226
asg14
F130.81448316574097
sg15
F131.59035301208496
sg16
F131.36420011520386
sg17
g182
sg22
g183
sg24
I2
sg25
I1
saa(dp334
g170
g171
sg172
g171
sg173
S'3'
sg174
g171
sa(lp335
(dp336
g4
I00
sg5
F800
sg6
(lp337
(F1122
F764
tp338
a(F1068
F442
tp339
a(F616
F747
tp340
a(F468
F348
tp341
asg11
I1
sg12
(lp342
g340
asg14
F135.11450505256653
sg15
F136.31650018692017
sg16
F135.94759011268616
sg17
g18
(g19
(S'S13'
I0
I1
tRp343
(I3
S'|'
NNNI13
I1
I0
tbS'image_185.bmp'
tRp344
sg22
(F779
F378
tp345
sg24
I3
sg25
I4
sa(dp346
g4
I00
sg5
F259
sg6
(lp347
(F933
F392
tp348
a(F515
F611
tp349
a(F835
F721
tp350
a(F1028
F829
tp351
a(F671
F473
tp352
asg11
I1
sg12
(lp353
g349
asg14
F137.04791116714478
sg15
F137.52187204360962
sg16
F137.33093404769897
sg17
g344
sg22
g345
sg24
I3
sg25
I5
sa(dp354
g4
I00
sg5
F41
sg6
(lp355
(F118
F758
tp356
asg11
I1
sg12
(lp357
g356
asg14
F138.16458606719971
sg15
F138.48836708068848
sg16
F138.23094820976257
sg17
g344
sg22
g345
sg24
I3
sg25
I1
sa(dp358
g4
I00
sg5
F55
sg6
(lp359
(F423
F450
tp360
a(F722
F184
tp361
a(F1119
F508
tp362
asg11
I1
sg12
(lp363
g361
asg14
F139.23125219345093
sg15
F139.67811012268066
sg16
F139.31432199478149
sg17
g344
sg22
g345
sg24
I3
sg25
I3
sa(dp364
g4
I00
sg5
F57
sg6
(lp365
(F981
F319
tp366
asg11
I1
sg12
(lp367
g366
asg14
F140.43129706382751
sg15
F140.70810317993164
sg16
F140.51431798934937
sg17
g344
sg22
g345
sg24
I3
sg25
I1
sa(dp368
g4
I00
sg5
F19
sg6
(lp369
(F187
F836
tp370
asg11
I1
sg12
(lp371
g370
asg14
F141.481290102005
sg15
F142.03116416931152
sg16
F141.53099417686462
sg17
g344
sg22
g345
sg24
I3
sg25
I1
sa(dp372
g4
I00
sg5
F195
sg6
(lp373
(F816
F479
tp374
asg11
I1
sg12
(lp375
g374
asg14
F142.71466016769409
sg15
F143.11827516555786
sg16
F142.93102121353149
sg17
g344
sg22
g345
sg24
I3
sg25
I1
sa(dp376
g4
I00
sg5
F250
sg6
(lp377
(F422
F801
tp378
a(F632
F822
tp379
asg11
I1
sg12
(lp380
g379
asg14
F143.84800100326538
sg15
F144.32894420623779
sg16
F144.13103604316711
sg17
g344
sg22
g345
sg24
I3
sg25
I2
sa(dp381
g4
I00
sg5
F21
sg6
(lp382
g352
asg11
I1
sg12
(lp383
g352
asg14
F144.98135709762573
sg15
F145.22240209579468
sg16
F145.03105807304382
sg17
g344
sg22
g345
sg24
I3
sg25
I1
sa(dp384
g4
I00
sg5
F64
sg6
(lp385
(F844
F319
tp386
ag350
asg11
I1
sg12
(lp387
g386
asg14
F145.84804821014404
sg15
F146.3344361782074
sg16
F145.93106818199158
sg17
g344
sg22
g345
sg24
I3
sg25
I2
sa(dp388
g4
I00
sg5
F170
sg6
(lp389
(F317
F498
tp390
asg11
I1
sg12
(lp391
g390
asg14
F146.99806499481201
sg15
F147.56732320785522
sg16
F147.19776010513306
sg17
g344
sg22
g345
sg24
I3
sg25
I1
sa(dp392
g4
I00
sg5
F126
sg6
(lp393
(F1038
F721
tp394
ag341
a(F805
F574
tp395
a(F576
F668
tp396
ag378
asg11
I1
sg12
(lp397
g396
asg14
F148.16474509239197
sg15
F148.6645200252533
sg16
F148.31443619728088
sg17
g344
sg22
g345
sg24
I3
sg25
I5
sa(dp398
g4
I00
sg5
F276
sg6
(lp399
(F223
F756
tp400
a(F888
F782
tp401
a(F303
F91
tp402
ag378
asg11
I1
sg12
(lp403
g401
asg14
F149.29810118675232
sg15
F149.89475107192993
sg16
F149.59782719612122
sg17
g344
sg22
g345
sg24
I3
sg25
I4
sa(dp404
g4
I00
sg5
F41
sg6
(lp405
g378
a(F348
F582
tp406
a(F614
F596
tp407
ag400
asg11
I1
sg12
(lp408
g407
asg14
F150.56475019454956
sg15
F150.83027410507202
sg16
F150.63115310668945
sg17
g344
sg22
g345
sg24
I3
sg25
I4
sa(dp409
g4
I00
sg5
F130
sg6
(lp410
(F900
F136
tp411
asg11
I1
sg12
(lp412
g411
asg14
F151.46479916572571
sg15
F152.36830615997314
sg16
F151.61453008651733
sg17
g344
sg22
g345
sg24
I3
sg25
I1
sa(dp413
g4
I00
sg5
F411
sg6
(lp414
(F1147
F298
tp415
ag378
a(F307
F179
tp416
asg11
I1
sg12
(lp417
g378
asg14
F153.08148813247681
sg15
F153.87626814842224
sg16
F153.51457810401917
sg17
g344
sg22
g345
sg24
I3
sg25
I3
sa(dp418
g4
I00
sg5
F90
sg6
(lp419
g406
a(F685
F680
tp420
a(F632
F170
tp421
a(F582
F488
tp422
asg11
I1
sg12
(lp423
g420
asg14
F154.59817099571228
sg15
F154.91986608505249
sg16
F154.71459197998047
sg17
g344
sg22
g345
sg24
I3
sg25
I4
sa(dp424
g4
I00
sg5
F75
sg6
(lp425
(F223
F506
tp426
a(F204
F224
tp427
ag350
a(F350
F868
tp428
ag400
asg11
I1
sg12
(lp429
g350
asg14
F155.58152413368225
sg15
F156.06755709648132
sg16
F155.68122315406799
sg17
g344
sg22
g345
sg24
I3
sg25
I5
sa(dp430
g4
I00
sg5
F98
sg6
(lp431
(F260
F605
tp432
a(F736
F304
tp433
a(F539
F820
tp434
a(F1114
F136
tp435
a(F324
F791
tp436
asg11
I1
sg12
(lp437
g434
asg14
F156.78153920173645
sg15
F157.37290406227112
sg16
F156.89794301986694
sg17
g344
sg22
g345
sg24
I3
sg25
I5
sa(dp438
g4
I00
sg5
F299
sg6
(lp439
g436
a(F1072
F364
tp440
a(F110
F400
tp441
asg11
I1
sg12
(lp442
g440
asg14
F158.08154916763306
sg15
F158.63438105583191
sg16
F158.41461515426636
sg17
g344
sg22
g345
sg24
I3
sg25
I3
sa(dp443
g4
I00
sg5
F179
sg6
(lp444
(F136
F614
tp445
ag436
a(F1022
F619
tp446
ag338
asg11
I1
sg12
(lp447
g446
asg14
F159.24826717376709
sg15
F159.86407208442688
sg16
F159.44793701171875
sg17
g344
sg22
g345
sg24
I3
sg25
I4
sa(dp448
g4
I00
sg5
F525
sg6
(lp449
g436
a(F525
F735
tp450
a(F586
F268
tp451
asg11
I1
sg12
(lp452
g451
asg14
F160.51494216918945
sg15
F161.2839081287384
sg16
F161.06465911865234
sg17
g344
sg22
g345
sg24
I3
sg25
I3
sa(dp453
g4
I00
sg5
F553
sg6
(lp454
(F782
F654
tp455
a(F1185
F105
tp456
asg11
I1
sg12
(lp457
g455
asg14
F161.96498417854309
sg15
F162.73977708816528
sg16
F162.54801511764526
sg17
g344
sg22
g345
sg24
I3
sg25
I2
sa(dp458
g4
I00
sg5
F1
sg6
(lp459
g450
ag436
a(F443
F572
tp460
a(F169
F330
tp461
asg11
I1
sg12
(lp462
g460
asg14
F163.34829115867615
sg15
F163.56598520278931
sg16
F163.38136410713196
sg17
g344
sg22
g345
sg24
I3
sg25
I4
sa(dp463
g4
I00
sg5
F123
sg6
(lp464
g436
asg11
I1
sg12
(lp465
g436
asg14
F164.31501913070679
sg15
F164.83776307106018
sg16
F164.46468710899353
sg17
g344
sg22
g345
sg24
I3
sg25
I1
sa(dp466
g4
I00
sg5
F203
sg6
(lp467
(F1158
F410
tp468
a(F566
F390
tp469
ag450
asg11
I1
sg12
(lp470
g469
asg14
F165.53167200088501
sg15
F165.94997406005859
sg16
F165.76472806930542
sg17
g344
sg22
g345
sg24
I3
sg25
I3
sa(dp471
g4
I00
sg5
F0
sg6
(lp472
(F717
F751
tp473
asg11
I1
sg12
(lp474
g473
asg14
F166.58171319961548
sg15
F166.82840609550476
sg16
F166.61474418640137
sg17
g344
sg22
g345
sg24
I3
sg25
I1
sa(dp475
g4
I00
sg5
F96
sg6
(lp476
g450
ag406
ag395
ag461
ag422
asg11
I1
sg12
(lp477
g422
asg14
F167.56505703926086
sg15
F168.06573915481567
sg16
F167.68143010139465
sg17
g344
sg22
g345
sg24
I3
sg25
I5
sa(dp478
g4
I00
sg5
F615
sg6
(lp479
g406
ag421
ag450
a(F293
F394
tp480
asg11
I1
sg12
(lp481
g480
asg14
F168.81505703926086
sg15
F169.67980408668518
sg16
F169.44814515113831
sg17
g344
sg22
g345
sg24
I3
sg25
I4
sa(dp482
g4
I00
sg5
F125
sg6
(lp483
(F878
F621
tp484
ag416
ag351
a(F1007
F245
tp485
a(F316
F674
tp486
asg11
I1
sg12
(lp487
g484
asg14
F170.3817400932312
sg15
F170.68793201446533
sg16
F170.53153014183044
sg17
g344
sg22
g345
sg24
I3
sg25
I5
sa(dp488
g4
I00
sg5
F875
sg6
(lp489
g338
ag433
a(F1101
F235
tp490
ag461
ag450
asg11
I1
sg12
(lp491
g433
asg14
F171.34845209121704
sg15
F172.48973417282104
sg16
F172.24818015098572
sg17
g344
sg22
g345
sg24
I3
sg25
I5
saa(dp492
g170
g171
sg172
g171
sg173
S'3'
sg174
g171
sa(lp493
(dp494
g4
I00
sg5
F122
sg6
(lp495
(F640
F402
tp496
a(F1076
F637
tp497
asg11
I1
sg12
(lp498
g496
asg14
F176.41517019271851
sg15
F177.19375801086426
sg16
F177.01492309570312
sg17
g18
(g19
(S'S13'
I0
I1
tRp499
(I3
S'|'
NNNI13
I1
I0
tbS'image_129.bmp'
tRp500
sg22
(F831
F199
tp501
sg24
I4
sg25
I2
sa(dp502
g4
I00
sg5
F233
sg6
(lp503
(F779
F511
tp504
a(F707
F777
tp505
asg11
I1
sg12
(lp506
g504
asg14
F177.89852499961853
sg15
F178.37796020507812
sg16
F178.16494512557983
sg17
g500
sg22
g501
sg24
I4
sg25
I2
sa(dp507
g4
I00
sg5
F252
sg6
(lp508
(F628
F588
tp509
a(F870
F694
tp510
asg11
I1
sg12
(lp511
g509
asg14
F178.99857902526855
sg15
F179.41361308097839
sg16
F179.28160619735718
sg17
g500
sg22
g501
sg24
I4
sg25
I2
sa(dp512
g4
I00
sg5
F495
sg6
(lp513
(F457
F559
tp514
a(F412
F372
tp515
asg11
I1
sg12
(lp516
g514
asg14
F180.06523704528809
sg15
F180.75001502037048
sg16
F180.58162617683411
sg17
g500
sg22
g501
sg24
I4
sg25
I2
sa(dp517
g4
I00
sg5
F58
sg6
(lp518
(F233
F575
tp519
a(F253
F826
tp520
asg11
I1
sg12
(lp521
g519
asg14
F181.44860601425171
sg15
F181.73379707336426
sg16
F181.53165102005005
sg17
g500
sg22
g501
sg24
I4
sg25
I2
sa(dp522
g4
I00
sg5
F415
sg6
(lp523
(F719
F451
tp524
a(F335
F342
tp525
a(F117
F271
tp526
asg11
I1
sg12
(lp527
g524
asg14
F182.41527819633484
sg15
F183.03821420669556
sg16
F182.84832215309143
sg17
g500
sg22
g501
sg24
I4
sg25
I3
sa(dp528
g4
I00
sg5
F494
sg6
(lp529
(F707
F651
tp530
a(F357
F866
tp531
asg11
I1
sg12
(lp532
g530
asg14
F183.64862108230591
sg15
F184.36754298210144
sg16
F184.16503310203552
sg17
g500
sg22
g501
sg24
I4
sg25
I2
sa(dp533
g4
I00
sg5
F581
sg6
(lp534
(F292
F507
tp535
a(F97
F622
tp536
a(F1090
F758
tp537
a(F273
F738
tp538
a(F958
F477
tp539
asg11
I1
sg12
(lp540
g539
asg14
F185.11530613899231
sg15
F185.92400407791138
sg16
F185.71502614021301
sg17
g500
sg22
g501
sg24
I4
sg25
I5
sa(dp541
g4
I00
sg5
F37
sg6
(lp542
(F1180
F683
tp543
a(F360
F610
tp544
ag515
ag538
a(F955
F701
tp545
asg11
I1
sg12
(lp546
g544
asg14
F186.54863810539246
sg15
F186.98787999153137
sg16
F186.61504220962524
sg17
g500
sg22
g501
sg24
I4
sg25
I5
sa(dp547
g4
I00
sg5
F56
sg6
(lp548
(F928
F314
tp549
ag497
a(F603
F662
tp550
a(F634
F319
tp551
a(F1175
F165
tp552
asg11
I1
sg12
(lp553
g550
asg14
F187.71536898612976
sg15
F187.99924111366272
sg16
F187.79843902587891
sg17
g500
sg22
g501
sg24
I4
sg25
I5
sa(dp554
g4
I00
sg5
F119
sg6
(lp555
(F1013
F795
tp556
ag497
asg11
I1
sg12
(lp557
g497
asg14
F188.68203020095825
sg15
F189.31178212165833
sg16
F188.83174514770508
sg17
g500
sg22
g501
sg24
I4
sg25
I2
sa(dp558
g4
I00
sg5
F60
sg6
(lp559
(F1126
F458
tp560
asg11
I1
sg12
(lp561
g560
asg14
F189.99873018264771
sg15
F190.34590315818787
sg16
F190.08175420761108
sg17
g500
sg22
g501
sg24
I4
sg25
I1
sa(dp562
g4
I00
sg5
F137
sg6
(lp563
(F944
F96
tp564
a(F490
F813
tp565
a(F1093
F859
tp566
a(F796
F294
tp567
asg11
I1
sg12
(lp568
g567
asg14
F191.06543803215027
sg15
F191.44013214111328
sg16
F191.23180603981018
sg17
g500
sg22
g501
sg24
I4
sg25
I4
sa(dp569
g4
I00
sg5
F1399
sg6
(lp570
g543
ag565
ag552
asg11
I1
sg12
(lp571
g565
asg14
F192.14876008033752
sg15
F193.80159902572632
sg16
F193.58186602592468
sg17
g500
sg22
g501
sg24
I4
sg25
I3
sa(dp572
g4
I00
sg5
F359
sg6
(lp573
(F403
F139
tp574
ag543
ag538
a(F902
F869
tp575
a(F350
F434
tp576
asg11
I1
sg12
(lp577
g576
asg14
F194.49880719184875
sg15
F195.07982802391052
sg16
F194.88188719749451
sg17
g500
sg22
g501
sg24
I4
sg25
I5
sa(dp578
g4
I00
sg5
F96
sg6
(lp579
g543
a(F548
F549
tp580
a(F175
F451
tp581
a(F410
F218
tp582
asg11
I1
sg12
(lp583
g580
asg14
F195.71546912193298
sg15
F196.00565505027771
sg16
F195.83187007904053
sg17
g500
sg22
g501
sg24
I4
sg25
I4
sa(dp584
g4
I00
sg5
F375
sg6
(lp585
g535
asg11
I1
sg12
(lp586
g535
asg14
F196.68219017982483
sg15
F197.3799901008606
sg16
F197.08186221122742
sg17
g500
sg22
g501
sg24
I4
sg25
I1
sa(dp587
g4
I00
sg5
F441
sg6
(lp588
g526
a(F1181
F820
tp589
a(F1004
F584
tp590
asg11
I1
sg12
(lp591
g590
asg14
F198.11557006835938
sg15
F198.90531206130981
sg16
F198.58193802833557
sg17
g500
sg22
g501
sg24
I4
sg25
I3
sa(dp592
g4
I00
sg5
F146
sg6
(lp593
g575
ag543
a(F1083
F172
tp594
a(F494
F391
tp595
asg11
I1
sg12
(lp596
g595
asg14
F199.5822319984436
sg15
F200.06195521354675
sg16
F199.74862813949585
sg17
g500
sg22
g501
sg24
I4
sg25
I4
sa(dp597
g4
I00
sg5
F95
sg6
(lp598
g581
asg11
I1
sg12
(lp599
g581
asg14
F200.79888415336609
sg15
F201.36790204048157
sg16
F200.91527605056763
sg17
g500
sg22
g501
sg24
I4
sg25
I1
sa(dp600
g4
I00
sg5
F143
sg6
(lp601
g566
asg11
I1
sg12
(lp602
g566
asg14
F202.06557011604309
sg15
F202.49325299263
sg16
F202.23194909095764
sg17
g500
sg22
g501
sg24
I4
sg25
I1
saa(dp603
g170
g171
sg172
g171
sg173
S'3'
sg174
g171
sa(lp604
(dp605
g4
I00
sg5
F57
sg6
(lp606
(F713
F676
tp607
a(F580
F519
tp608
a(F325
F770
tp609
asg11
I1
sg12
(lp610
g609
asg14
F205.31565403938293
sg15
F205.83918309211731
sg16
F205.66533803939819
sg17
g18
(g19
(S'S13'
I0
I1
tRp611
(I3
S'|'
NNNI13
I1
I0
tbS'image_170.bmp'
tRp612
sg22
(F95
F765
tp613
sg24
I5
sg25
I3
sa(dp614
g4
I00
sg5
F232
sg6
(lp615
(F469
F455
tp616
a(F419
F190
tp617
a(F220
F629
tp618
asg11
I1
sg12
(lp619
g616
asg14
F206.4989800453186
sg15
F206.94710516929626
sg16
F206.7653980255127
sg17
g612
sg22
g613
sg24
I5
sg25
I3
sa(dp620
g4
I00
sg5
F113
sg6
(lp621
(F562
F600
tp622
a(F350
F614
tp623
a(F590
F177
tp624
a(F1038
F845
tp625
a(F140
F695
tp626
asg11
I1
sg12
(lp627
g622
asg14
F207.69898414611816
sg15
F208.05140805244446
sg16
F207.83205819129944
sg17
g612
sg22
g613
sg24
I5
sg25
I5
sa(dp628
g4
I00
sg5
F799
sg6
(lp629
(F733
F538
tp630
a(F562
F807
tp631
asg11
I1
sg12
(lp632
g630
asg14
F208.79903221130371
sg15
F209.83561015129089
sg16
F209.63207697868347
sg17
g612
sg22
g613
sg24
I5
sg25
I2
sa(dp633
g4
I00
sg5
F240
sg6
(lp634
(F969
F211
tp635
a(F764
F737
tp636
a(F850
F103
tp637
a(F1142
F224
tp638
asg11
I1
sg12
(lp639
g635
asg14
F210.49903202056885
sg15
F211.04306697845459
sg16
F210.7654881477356
sg17
g612
sg22
g613
sg24
I5
sg25
I4
sa(dp640
g4
I00
sg5
F4
sg6
(lp641
(F234
F868
tp642
a(F427
F665
tp643
a(F975
F390
tp644
asg11
I1
sg12
(lp645
g643
asg14
F211.71573901176453
sg15
F211.90551018714905
sg16
F211.74877309799194
sg17
g612
sg22
g613
sg24
I5
sg25
I3
sa(dp646
g4
I00
sg5
F64
sg6
(lp647
(F779
F602
tp648
a(F1071
F420
tp649
ag631
asg11
I1
sg12
(lp650
g648
asg14
F212.59908604621887
sg15
F212.88544702529907
sg16
F212.68212699890137
sg17
g612
sg22
g613
sg24
I5
sg25
I3
sa(dp651
g4
I00
sg5
F574
sg6
(lp652
(F142
F167
tp653
asg11
I1
sg12
(lp654
g653
asg14
F213.54909801483154
sg15
F214.53138899803162
sg16
F214.14885306358337
sg17
g612
sg22
g613
sg24
I5
sg25
I1
sa(dp655
g4
I00
sg5
F509
sg6
(lp656
(F567
F374
tp657
a(F148
F838
tp658
asg11
I1
sg12
(lp659
g657
asg14
F215.19912719726562
sg15
F215.91324305534363
sg16
F215.7321879863739
sg17
g612
sg22
g613
sg24
I5
sg25
I2
sa(dp660
g4
I00
sg5
F254
sg6
(lp661
(F845
F700
tp662
asg11
I1
sg12
(lp663
g662
asg14
F216.6491551399231
sg15
F217.13309216499329
sg16
F216.93217420578003
sg17
g612
sg22
g613
sg24
I5
sg25
I1
sa(dp664
g4
I00
sg5
F6
sg6
(lp665
(F680
F357
tp666
a(F553
F700
tp667
a(F504
F137
tp668
a(F1166
F568
tp669
a(F821
F509
tp670
asg11
I1
sg12
(lp671
g670
asg14
F217.79919004440308
sg15
F218.08310008049011
sg16
F217.83220815658569
sg17
g612
sg22
g613
sg24
I5
sg25
I5
sa(dp672
g4
I00
sg5
F129
sg6
(lp673
(F334
F861
tp674
asg11
I1
sg12
(lp675
g674
asg14
F218.73254108428955
sg15
F219.35708999633789
sg16
F218.88222217559814
sg17
g612
sg22
g613
sg24
I5
sg25
I1
sa(dp676
g4
I00
sg5
F46
sg6
(lp677
(F857
F622
tp678
a(F482
F730
tp679
asg11
I1
sg12
(lp680
g679
asg14
F220.06587100028992
sg15
F220.33095407485962
sg16
F220.1322181224823
sg17
g612
sg22
g613
sg24
I5
sg25
I2
sa(dp681
g4
I00
sg5
F91
sg6
(lp682
(F656
F600
tp683
ag626
ag623
a(F933
F736
tp684
ag642
asg11
I1
sg12
(lp685
g683
asg14
F221.04924917221069
sg15
F221.3415060043335
sg16
F221.16557598114014
sg17
g612
sg22
g613
sg24
I5
sg25
I5
sa(dp686
g4
I00
sg5
F90
sg6
(lp687
(F865
F187
tp688
asg11
I1
sg12
(lp689
g688
asg14
F222.09922909736633
sg15
F222.46317100524902
sg16
F222.21561312675476
sg17
g612
sg22
g613
sg24
I5
sg25
I1
sa(dp690
g4
I00
sg5
F143
sg6
(lp691
g667
a(F712
F278
tp692
a(F648
F460
tp693
a(F405
F370
tp694
asg11
I1
sg12
(lp695
g693
asg14
F223.06591820716858
sg15
F223.39126920700073
sg16
F223.23230719566345
sg17
g612
sg22
g613
sg24
I5
sg25
I4
sa(dp696
g4
I00
sg5
F381
sg6
(lp697
g631
ag658
a(F1031
F620
tp698
a(F1135
F358
tp699
asg11
I1
sg12
(lp700
g698
asg14
F224.015949010849
sg15
F224.75937819480896
sg16
F224.41563105583191
sg17
g612
sg22
g613
sg24
I5
sg25
I4
sa(dp701
g4
I00
sg5
F563
sg6
(lp702
(F1123
F827
tp703
a(F403
F535
tp704
a(F636
F105
tp705
asg11
I1
sg12
(lp706
g704
asg14
F225.43261814117432
sg15
F226.40143609046936
sg16
F226.01568603515625
sg17
g612
sg22
g613
sg24
I5
sg25
I3
sa(dp707
g4
I00
sg5
F20
sg6
(lp708
g618
ag667
ag694
asg11
I1
sg12
(lp709
g667
asg14
F227.04930114746094
sg15
F227.36338114738464
sg16
F227.09903717041016
sg17
g612
sg22
g613
sg24
I5
sg25
I3
sa(dp710
g4
I00
sg5
F32
sg6
(lp711
(F912
F436
tp712
asg11
I1
sg12
(lp713
g712
asg14
F228.01599717140198
sg15
F228.29530310630798
sg16
F228.08236813545227
sg17
g612
sg22
g613
sg24
I5
sg25
I1
sa(dp714
g4
I00
sg5
F486
sg6
(lp715
g668
asg11
I1
sg12
(lp716
g668
asg14
F228.96602511405945
sg15
F229.71700000762939
sg16
F229.48242521286011
sg17
g612
sg22
g613
sg24
I5
sg25
I1
sa(dp717
g4
I00
sg5
F360
sg6
(lp718
g649
a(F302
F332
tp719
a(F876
F357
tp720
ag658
asg11
I1
sg12
(lp721
g720
asg14
F230.466068983078
sg15
F231.06101703643799
sg16
F230.84906315803528
sg17
g612
sg22
g613
sg24
I5
sg25
I4
sa(dp722
g4
I00
sg5
F550
sg6
(lp723
g631
a(F650
F226
tp724
asg11
I1
sg12
(lp725
g724
asg14
F231.74937319755554
sg15
F232.54305601119995
sg16
F232.33244919776917
sg17
g612
sg22
g613
sg24
I5
sg25
I2
sa(dp726
g4
I00
sg5
F169
sg6
(lp727
g631
a(F123
F586
tp728
a(F1074
F307
tp729
a(F202
F382
tp730
a(F470
F598
tp731
asg11
I1
sg12
(lp732
g731
asg14
F233.23277997970581
sg15
F233.66900515556335
sg16
F233.43248820304871
sg17
g612
sg22
g613
sg24
I5
sg25
I5
sa(dp733
g4
I00
sg5
F339
sg6
(lp734
(F1046
F697
tp735
asg11
I1
sg12
(lp736
g735
asg14
F234.38274121284485
sg15
F234.96729803085327
sg16
F234.74912118911743
sg17
g612
sg22
g613
sg24
I5
sg25
I1
saa(dp737
g170
g171
sg172
g171
sg173
S'3'
sg174
g171
sa(lp738
(dp739
g4
I00
sg5
F80
sg6
(lp740
(F869
F364
tp741
a(F1018
F107
tp742
a(F517
F440
tp743
a(F635
F810
tp744
asg11
I1
sg12
(lp745
g741
asg14
F237.66614818572998
sg15
F238.74317717552185
sg16
F238.53257298469543
sg17
g18
(g19
(S'S13'
I0
I1
tRp746
(I3
S'|'
NNNI13
I1
I0
tbS'image_175.bmp'
tRp747
sg22
(F837
F96
tp748
sg24
I6
sg25
I4
sa(dp749
g4
I00
sg5
F69
sg6
(lp750
(F595
F97
tp751
a(F338
F365
tp752
a(F903
F589
tp753
asg11
I1
sg12
(lp754
g752
asg14
F239.46617913246155
sg15
F239.90264320373535
sg16
F239.56593108177185
sg17
g747
sg22
g748
sg24
I6
sg25
I3
sa(dp755
g4
I00
sg5
F744
sg6
(lp756
(F805
F694
tp757
a(F563
F187
tp758
asg11
I1
sg12
(lp759
g757
asg14
F240.58285903930664
sg15
F241.60690402984619
sg16
F241.34929704666138
sg17
g747
sg22
g748
sg24
I6
sg25
I2
sa(dp760
g4
I00
sg5
F830
sg6
(lp761
(F203
F210
tp762
a(F695
F477
tp763
a(F1123
F183
tp764
a(F885
F497
tp765
asg11
I1
sg12
(lp766
g763
asg14
F242.26618909835815
sg15
F243.34911012649536
sg16
F243.11599707603455
sg17
g747
sg22
g748
sg24
I6
sg25
I4
sa(dp767
g4
I00
sg5
F230
sg6
(lp768
(F332
F197
tp769
a(F842
F209
tp770
a(F321
F733
tp771
asg11
I1
sg12
(lp772
g769
asg14
F243.98291110992432
sg15
F244.43106412887573
sg16
F244.23268508911133
sg17
g747
sg22
g748
sg24
I6
sg25
I3
sa(dp773
g4
I00
sg5
F268
sg6
(lp774
(F777
F289
tp775
ag765
a(F1007
F295
tp776
asg11
I1
sg12
(lp777
g775
asg14
F245.11630010604858
sg15
F245.41681718826294
sg16
F245.41599202156067
sg17
g747
sg22
g748
sg24
I6
sg25
I3
sa(dp778
g4
I00
sg5
F732
sg6
(lp779
(F316
F548
tp780
asg11
I1
sg12
(lp781
g780
asg14
F246.16627407073975
sg15
F247.15495800971985
sg16
F246.93268418312073
sg17
g747
sg22
g748
sg24
I6
sg25
I1
sa(dp782
g4
I00
sg5
F958
sg6
(lp783
(F95
F320
tp784
a(F525
F561
tp785
asg11
I1
sg12
(lp786
g785
asg14
F247.78298902511597
sg15
F248.95503115653992
sg16
F248.76604104042053
sg17
g747
sg22
g748
sg24
I6
sg25
I2
sa(dp787
g4
I00
sg5
F437
sg6
(lp788
(F420
F152
tp789
a(F700
F90
tp790
asg11
I1
sg12
(lp791
g789
asg14
F249.69966006278992
sg15
F250.72313404083252
sg16
F250.16610813140869
sg17
g747
sg22
g748
sg24
I6
sg25
I2
sa(dp792
g4
I00
sg5
F208
sg6
(lp793
g743
a(F204
F784
tp794
asg11
I1
sg12
(lp795
g743
asg14
F251.4497230052948
sg15
F251.94321799278259
sg16
F251.6827290058136
sg17
g747
sg22
g748
sg24
I6
sg25
I2
sa(dp796
g4
I00
sg5
F151
sg6
(lp797
(F256
F461
tp798
asg11
I1
sg12
(lp799
g798
asg14
F252.63304209709167
sg15
F253.23894619941711
sg16
F252.81610798835754
sg17
g747
sg22
g748
sg24
I6
sg25
I1
sa(dp800
g4
I00
sg5
F167
sg6
(lp801
(F558
F866
tp802
asg11
I1
sg12
(lp803
g802
asg14
F253.91640400886536
sg15
F254.40102410316467
sg16
F254.1161150932312
sg17
g747
sg22
g748
sg24
I6
sg25
I1
sa(dp804
g4
I00
sg5
F314
sg6
(lp805
g784
a(F369
F452
tp806
asg11
I1
sg12
(lp807
g806
asg14
F255.03308606147766
sg15
F255.59715700149536
sg16
F255.366131067276
sg17
g747
sg22
g748
sg24
I6
sg25
I2
sa(dp808
g4
I00
sg5
F347
sg6
(lp809
(F1148
F343
tp810
asg11
I1
sg12
(lp811
g810
asg14
F256.26645016670227
sg15
F257.05090808868408
sg16
F256.632817029953
sg17
g747
sg22
g748
sg24
I6
sg25
I1
sa(dp812
g4
I00
sg5
F455
sg6
(lp813
g794
a(F725
F701
tp814
a(F418
F660
tp815
ag790
asg11
I1
sg12
(lp816
g814
asg14
F257.76648712158203
sg15
F258.42085599899292
sg16
F258.24955320358276
sg17
g747
sg22
g748
sg24
I6
sg25
I4
sa(dp817
g4
I00
sg5
F422
sg6
(lp818
(F217
F132
tp819
a(F306
F276
tp820
ag790
ag815
asg11
I1
sg12
(lp821
g815
asg14
F259.06647920608521
sg15
F259.71119117736816
sg16
F259.51627111434937
sg17
g747
sg22
g748
sg24
I6
sg25
I4
saa(dp822
g170
g171
sg172
g171
sg173
S'3'
sg174
g171
sa(lp823
(dp824
g4
I00
sg5
F41
sg6
(lp825
(F1016
F569
tp826
a(F765
F130
tp827
a(F941
F725
tp828
a(F143
F417
tp829
asg11
I1
sg12
(lp830
g826
asg14
F262.78321409225464
sg15
F263.25291514396667
sg16
F262.99959421157837
sg17
g18
(g19
(S'S13'
I0
I1
tRp831
(I3
S'|'
NNNI13
I1
I0
tbS'image_160.bmp'
tRp832
sg22
(F732
F508
tp833
sg24
I7
sg25
I4
sa(dp834
g4
I00
sg5
F102
sg6
(lp835
(F676
F590
tp836
a(F99
F339
tp837
a(F744
F869
tp838
a(F1111
F327
tp839
a(F433
F292
tp840
asg11
I1
sg12
(lp841
g836
asg14
F263.84990906715393
sg15
F264.15314316749573
sg16
F263.98294401168823
sg17
g832
sg22
g833
sg24
I7
sg25
I5
sa(dp842
g4
I00
sg5
F1089
sg6
(lp843
(F426
F96
tp844
a(F623
F182
tp845
asg11
I1
sg12
(lp846
g845
asg14
F264.81656312942505
sg15
F266.15848207473755
sg16
F265.93300414085388
sg17
g832
sg22
g833
sg24
I7
sg25
I2
sa(dp847
g4
I00
sg5
F299
sg6
(lp848
(F817
F551
tp849
a(F1023
F839
tp850
a(F1040
F471
tp851
asg11
I1
sg12
(lp852
g849
asg14
F266.93326711654663
sg15
F267.44883298873901
sg16
F267.26632118225098
sg17
g832
sg22
g833
sg24
I7
sg25
I3
sa(dp853
g4
I00
sg5
F41
sg6
(lp854
g838
asg11
I1
sg12
(lp855
g838
asg14
F268.16661500930786
sg15
F268.47268414497375
sg16
F268.23298120498657
sg17
g832
sg22
g833
sg24
I7
sg25
I1
sa(dp856
g4
I00
sg5
F142
sg6
(lp857
(F340
F482
tp858
a(F181
F674
tp859
a(F771
F415
tp860
asg11
I1
sg12
(lp861
g860
asg14
F269.28329420089722
sg15
F269.62695503234863
sg16
F269.44969511032104
sg17
g832
sg22
g833
sg24
I7
sg25
I3
sa(dp862
g4
I00
sg5
F287
sg6
(lp863
(F522
F629
tp864
asg11
I1
sg12
(lp865
g864
asg14
F270.30000114440918
sg15
F270.80293917655945
sg16
F270.61635518074036
sg17
g832
sg22
g833
sg24
I7
sg25
I1
sa(dp866
g4
I00
sg5
F634
sg6
(lp867
(F1039
F761
tp868
a(F856
F864
tp869
asg11
I1
sg12
(lp870
g869
asg14
F271.50004315376282
sg15
F272.37844800949097
sg16
F272.16639804840088
sg17
g832
sg22
g833
sg24
I7
sg25
I2
sa(dp871
g4
I00
sg5
F311
sg6
(lp872
(F1133
F111
tp873
a(F567
F423
tp874
a(F946
F496
tp875
a(F120
F723
tp876
a(F466
F685
tp877
asg11
I1
sg12
(lp878
g874
asg14
F273.11671209335327
sg15
F273.64102602005005
sg16
F273.44979000091553
sg17
g832
sg22
g833
sg24
I7
sg25
I5
sa(dp879
g4
I00
sg5
F28
sg6
(lp880
(F1033
F271
tp881
a(F117
F235
tp882
asg11
I1
sg12
(lp883
g881
asg14
F274.33337712287903
sg15
F274.83333301544189
sg16
F274.38314008712769
sg17
g832
sg22
g833
sg24
I7
sg25
I2
sa(dp884
g4
I00
sg5
F370
sg6
(lp885
(F663
F113
tp886
a(F750
F731
tp887
ag829
asg11
I1
sg12
(lp888
g886
asg14
F275.55008506774902
sg15
F276.4012610912323
sg16
F275.94983005523682
sg17
g832
sg22
g833
sg24
I7
sg25
I3
sa(dp889
g4
I00
sg5
F166
sg6
(lp890
(F435
F413
tp891
a(F600
F262
tp892
asg11
I1
sg12
(lp893
g891
asg14
F277.11676406860352
sg15
F277.55448913574219
sg16
F277.31649208068848
sg17
g832
sg22
g833
sg24
I7
sg25
I2
sa(dp894
g4
I00
sg5
F57
sg6
(lp895
(F352
F219
tp896
asg11
I1
sg12
(lp897
g896
asg14
F278.03346300125122
sg15
F278.58454513549805
sg16
F278.11650705337524
sg17
g832
sg22
g833
sg24
I7
sg25
I1
sa(dp898
g4
I00
sg5
F67
sg6
(lp899
g876
asg11
I1
sg12
(lp900
g876
asg14
F279.26678609848022
sg15
F279.68216109275818
sg16
F279.36648201942444
sg17
g832
sg22
g833
sg24
I7
sg25
I1
sa(dp901
g4
I00
sg5
F442
sg6
(lp902
(F669
F827
tp903
a(F532
F203
tp904
ag868
asg11
I1
sg12
(lp905
g903
asg14
F280.38348412513733
sg15
F281.15463900566101
sg16
F280.84989809989929
sg17
g832
sg22
g833
sg24
I7
sg25
I3
sa(dp906
g4
I00
sg5
F141
sg6
(lp907
g859
a(F212
F523
tp908
a(F161
F829
tp909
asg11
I1
sg12
(lp910
g908
asg14
F281.86685919761658
sg15
F282.3347442150116
sg16
F282.03320503234863
sg17
g832
sg22
g833
sg24
I7
sg25
I3
sa(dp911
g4
I00
sg5
F254
sg6
(lp912
(F202
F120
tp913
asg11
I1
sg12
(lp914
g913
asg14
F283.01685905456543
sg15
F283.51635313034058
sg16
F283.29994511604309
sg17
g832
sg22
g833
sg24
I7
sg25
I1
sa(dp915
g4
I00
sg5
F93
sg6
(lp916
(F404
F572
tp917
a(F681
F247
tp918
asg11
I1
sg12
(lp919
g917
asg14
F284.15022301673889
sg15
F284.74541997909546
sg16
F284.26659202575684
sg17
g832
sg22
g833
sg24
I7
sg25
I2
sa(dp920
g4
I00
sg5
F388
sg6
(lp921
g868
a(F1133
F433
tp922
asg11
I1
sg12
(lp923
g868
asg14
F285.50024318695068
sg15
F286.14047718048096
sg16
F285.91661715507507
sg17
g832
sg22
g833
sg24
I7
sg25
I2
sa(dp924
g4
I00
sg5
F219
sg6
(lp925
(F90
F488
tp926
ag859
ag909
asg11
I1
sg12
(lp927
g859
asg14
F286.86697006225586
sg15
F287.4682559967041
sg16
F287.11665105819702
sg17
g832
sg22
g833
sg24
I7
sg25
I3
sa(dp928
g4
I00
sg5
F267
sg6
(lp929
(F928
F226
tp930
a(F353
F379
tp931
a(F1048
F374
tp932
a(F926
F812
tp933
asg11
I1
sg12
(lp934
g932
asg14
F288.18361520767212
sg15
F288.85430717468262
sg16
F288.4833300113678
sg17
g832
sg22
g833
sg24
I7
sg25
I4
sa(dp935
g4
I00
sg5
F244
sg6
(lp936
(F923
F617
tp937
ag827
ag931
ag926
asg11
I1
sg12
(lp938
g931
asg14
F289.46696615219116
sg15
F290.19493317604065
sg16
F289.73336911201477
sg17
g832
sg22
g833
sg24
I7
sg25
I4
sa(dp939
g4
I00
sg5
F55
sg6
(lp940
(F1001
F197
tp941
asg11
I1
sg12
(lp942
g941
asg14
F290.78361320495605
sg15
F291.10468316078186
sg16
F290.86673021316528
sg17
g832
sg22
g833
sg24
I7
sg25
I1
sa(dp943
g4
I00
sg5
F53
sg6
(lp944
(F134
F578
tp945
a(F857
F408
tp946
ag840
a(F247
F725
tp947
asg11
I1
sg12
(lp948
g946
asg14
F291.81700301170349
sg15
F292.08881306648254
sg16
F291.90004706382751
sg17
g832
sg22
g833
sg24
I7
sg25
I4
sa(dp949
g4
I00
sg5
F188
sg6
(lp950
(F1040
F127
tp951
ag945
ag882
ag904
asg11
I1
sg12
(lp952
g904
asg14
F292.71700811386108
sg15
F293.5687370300293
sg16
F292.93346118927002
sg17
g832
sg22
g833
sg24
I7
sg25
I4
sa(dp953
g4
I00
sg5
F117
sg6
(lp954
(F625
F480
tp955
asg11
I1
sg12
(lp956
g955
asg14
F294.25036311149597
sg15
F294.60632014274597
sg16
F294.40005612373352
sg17
g832
sg22
g833
sg24
I7
sg25
I1
saa(dp957
g170
g171
sg172
g171
sg173
S'3'
sg174
g171
sa(lp958
(dp959
g4
I00
sg5
F117
sg6
(lp960
(F1157
F644
tp961
a(F732
F815
tp962
a(F621
F158
tp963
asg11
I1
sg12
(lp964
g963
asg14
F296.70040321350098
sg15
F297.39287710189819
sg16
F296.93348407745361
sg17
g18
(g19
(S'S13'
I0
I1
tRp965
(I3
S'|'
NNNI13
I1
I0
tbS'image_159.bmp'
tRp966
sg22
(F906
F446
tp967
sg24
I8
sg25
I3
sa(dp968
g4
I00
sg5
F220
sg6
(lp969
(F1107
F360
tp970
a(F574
F563
tp971
asg11
I1
sg12
(lp972
g971
asg14
F298.15042304992676
sg15
F298.480309009552
sg16
F298.40014600753784
sg17
g966
sg22
g967
sg24
I8
sg25
I2
sa(dp973
g4
I00
sg5
F814
sg6
(lp974
(F909
F323
tp975
asg11
I1
sg12
(lp976
g975
asg14
F299.16709399223328
sg15
F300.2048192024231
sg16
F300.00019407272339
sg17
g966
sg22
g967
sg24
I8
sg25
I1
sa(dp977
g4
I00
sg5
F638
sg6
(lp978
(F1126
F173
tp979
a(F407
F640
tp980
a(F765
F678
tp981
a(F1099
F719
tp982
asg11
I1
sg12
(lp983
g981
asg14
F300.8671510219574
sg15
F301.72601819038391
sg16
F301.53356719017029
sg17
g966
sg22
g967
sg24
I8
sg25
I4
sa(dp984
g4
I00
sg5
F220
sg6
(lp985
(F786
F135
tp986
a(F126
F749
tp987
asg11
I1
sg12
(lp988
g986
asg14
F302.41714310646057
sg15
F303.62813305854797
sg16
F302.66691303253174
sg17
g966
sg22
g967
sg24
I8
sg25
I2
sa(dp989
g4
I00
sg5
F407
sg6
(lp990
(F488
F399
tp991
ag961
a(F763
F562
tp992
a(F673
F370
tp993
a(F494
F597
tp994
asg11
I1
sg12
(lp995
g993
asg14
F304.2838671207428
sg15
F305.20876312255859
sg16
F304.71691012382507
sg17
g966
sg22
g967
sg24
I8
sg25
I5
sa(dp996
g4
I00
sg5
F427
sg6
(lp997
(F1167
F785
tp998
a(F961
F386
tp999
a(F944
F795
tp1000
a(F691
F121
tp1001
a(F511
F519
tp1002
asg11
I1
sg12
(lp1003
g1002
asg14
F305.90054321289062
sg15
F306.55182313919067
sg16
F306.35030603408813
sg17
g966
sg22
g967
sg24
I8
sg25
I5
sa(dp1004
g4
I00
sg5
F220
sg6
(lp1005
(F661
F255
tp1006
ag979
ag961
asg11
I1
sg12
(lp1007
g961
asg14
F307.33392310142517
sg15
F307.96442413330078
sg16
F307.58364820480347
sg17
g966
sg22
g967
sg24
I8
sg25
I3
sa(dp1008
g4
I00
sg5
F297
sg6
(lp1009
g1006
ag992
a(F519
F672
tp1010
a(F1003
F858
tp1011
ag970
asg11
I1
sg12
(lp1012
g992
asg14
F308.60060620307922
sg15
F309.10201501846313
sg16
F308.91701102256775
sg17
g966
sg22
g967
sg24
I8
sg25
I5
sa(dp1013
g4
I00
sg5
F63
sg6
(lp1014
(F422
F863
tp1015
asg11
I1
sg12
(lp1016
g1015
asg14
F309.81728005409241
sg15
F310.14603614807129
sg16
F309.90033602714539
sg17
g966
sg22
g967
sg24
I8
sg25
I1
sa(dp1017
g4
I00
sg5
F417
sg6
(lp1018
g1006
asg11
I1
sg12
(lp1019
g1006
asg14
F310.86729121208191
sg15
F311.53458619117737
sg16
F311.31703209877014
sg17
g966
sg22
g967
sg24
I8
sg25
I1
sa(dp1020
g4
I00
sg5
F17
sg6
(lp1021
(F765
F483
tp1022
asg11
I1
sg12
(lp1023
g1022
asg14
F312.26732707023621
sg15
F312.52046608924866
sg16
F312.31702208518982
sg17
g966
sg22
g967
sg24
I8
sg25
I1
sa(dp1024
g4
I00
sg5
F245
sg6
(lp1025
g999
a(F149
F486
tp1026
a(F744
F225
tp1027
asg11
I1
sg12
(lp1028
g1027
asg14
F313.23400020599365
sg15
F314.13058519363403
sg16
F313.50041317939758
sg17
g966
sg22
g967
sg24
I8
sg25
I3
sa(dp1029
g4
I00
sg5
F291
sg6
(lp1030
(F1130
F570
tp1031
a(F292
F420
tp1032
a(F1124
F854
tp1033
a(F509
F267
tp1034
asg11
I1
sg12
(lp1035
g1034
asg14
F314.85068607330322
sg15
F315.37582898139954
sg16
F315.16707611083984
sg17
g966
sg22
g967
sg24
I8
sg25
I4
sa(dp1036
g4
I00
sg5
F92
sg6
(lp1037
(F130
F292
tp1038
a(F594
F649
tp1039
ag970
a(F837
F617
tp1040
asg11
I1
sg12
(lp1041
g1039
asg14
F316.05068707466125
sg15
F316.61651015281677
sg16
F316.16708397865295
sg17
g966
sg22
g967
sg24
I8
sg25
I4
sa(dp1042
g4
I00
sg5
F82
sg6
(lp1043
(F337
F598
tp1044
a(F1184
F300
tp1045
a(F1055
F433
tp1046
a(F863
F108
tp1047
asg11
I1
sg12
(lp1048
g1044
asg14
F317.33407306671143
sg15
F317.73006510734558
sg16
F317.43381118774414
sg17
g966
sg22
g967
sg24
I8
sg25
I4
sa(dp1049
g4
I00
sg5
F81
sg6
(lp1050
g1011
a(F403
F306
tp1051
asg11
I1
sg12
(lp1052
g1051
asg14
F318.35074615478516
sg15
F318.78639698028564
sg16
F318.45046019554138
sg17
g966
sg22
g967
sg24
I8
sg25
I2
sa(dp1053
g4
I00
sg5
F89
sg6
(lp1054
(F350
F801
tp1055
asg11
I1
sg12
(lp1056
g1055
asg14
F319.51741600036621
sg15
F319.8383800983429
sg16
F319.63380718231201
sg17
g966
sg22
g967
sg24
I8
sg25
I1
sa(dp1057
g4
I00
sg5
F277
sg6
(lp1058
(F604
F329
tp1059
ag980
ag1001
a(F940
F215
tp1060
a(F192
F592
tp1061
asg11
I1
sg12
(lp1062
g1059
asg14
F320.56745505332947
sg15
F321.33397316932678
sg16
F320.86719012260437
sg17
g966
sg22
g967
sg24
I8
sg25
I5
sa(dp1063
g4
I00
sg5
F338
sg6
(lp1064
(F126
F208
tp1065
ag1031
a(F166
F825
tp1066
asg11
I1
sg12
(lp1067
g1031
asg14
F322.05084109306335
sg15
F322.71572208404541
sg16
F322.41722512245178
sg17
g966
sg22
g967
sg24
I8
sg25
I3
sa(dp1068
g4
I00
sg5
F145
sg6
(lp1069
(F324
F724
tp1070
asg11
I1
sg12
(lp1071
g1070
asg14
F323.4508261680603
sg15
F323.94202208518982
sg16
F323.61720514297485
sg17
g966
sg22
g967
sg24
I8
sg25
I1
sa(dp1072
g4
I00
sg5
F308
sg6
(lp1073
(F858
F758
tp1074
a(F1079
F270
tp1075
ag1001
ag1047
asg11
I1
sg12
(lp1076
g1074
asg14
F324.70086812973022
sg15
F325.42197799682617
sg16
F325.03399205207825
sg17
g966
sg22
g967
sg24
I8
sg25
I4
sa(dp1077
g4
I00
sg5
F202
sg6
(lp1078
g1001
a(F747
F338
tp1079
asg11
I1
sg12
(lp1080
g1079
asg14
F326.06751799583435
sg15
F326.82821106910706
sg16
F326.30061101913452
sg17
g966
sg22
g967
sg24
I8
sg25
I2
saa(dp1081
g170
g171
sg172
g171
sg173
S'3'
sg174
g171
sa(lp1082
(dp1083
g4
I00
sg5
F275
sg6
(lp1084
(F1185
F467
tp1085
a(F532
F659
tp1086
a(F1093
F830
tp1087
asg11
I1
sg12
(lp1088
g1086
asg14
F329.23426008224487
sg15
F329.83965420722961
sg16
F329.60065197944641
sg17
g18
(g19
(S'S13'
I0
I1
tRp1089
(I3
S'|'
NNNI13
I1
I0
tbS'image_186.bmp'
tRp1090
sg22
(F953
F727
tp1091
sg24
I9
sg25
I3
sa(dp1092
g4
I00
sg5
F335
sg6
(lp1093
(F966
F364
tp1094
a(F608
F313
tp1095
a(F895
F867
tp1096
a(F354
F714
tp1097
asg11
I1
sg12
(lp1098
g1095
asg14
F330.53427410125732
sg15
F331.14578318595886
sg16
F330.90064120292664
sg17
g1090
sg22
g1091
sg24
I9
sg25
I4
sa(dp1099
g4
I00
sg5
F41
sg6
(lp1100
(F957
F808
tp1101
a(F190
F133
tp1102
asg11
I1
sg12
(lp1103
g1101
asg14
F331.93431520462036
sg15
F332.5341010093689
sg16
F332.00069904327393
sg17
g1090
sg22
g1091
sg24
I9
sg25
I2
sa(dp1104
g4
I00
sg5
F111
sg6
(lp1105
(F231
F406
tp1106
a(F1121
F351
tp1107
a(F165
F841
tp1108
a(F514
F387
tp1109
ag1094
asg11
I1
sg12
(lp1110
g1109
asg14
F333.20099520683289
sg15
F333.61963820457458
sg16
F333.33404898643494
sg17
g1090
sg22
g1091
sg24
I9
sg25
I5
sa(dp1111
g4
I00
sg5
F69
sg6
(lp1112
g1096
a(F350
F550
tp1113
a(F134
F598
tp1114
a(F289
F349
tp1115
a(F261
F833
tp1116
asg11
I1
sg12
(lp1117
g1113
asg14
F334.33433318138123
sg15
F334.69819903373718
sg16
F334.43404412269592
sg17
g1090
sg22
g1091
sg24
I9
sg25
I5
sa(dp1118
g4
I00
sg5
F234
sg6
(lp1119
g1108
a(F1085
F456
tp1120
a(F451
F833
tp1121
asg11
I1
sg12
(lp1122
g1120
asg14
F335.36768698692322
sg15
F336.28016018867493
sg16
F335.63408017158508
sg17
g1090
sg22
g1091
sg24
I9
sg25
I3
sa(dp1123
g4
I00
sg5
F455
sg6
(lp1124
(F594
F747
tp1125
a(F703
F272
tp1126
a(F238
F621
tp1127
a(F468
F193
tp1128
a(F923
F234
tp1129
asg11
I1
sg12
(lp1130
g1126
asg14
F337.01769709587097
sg15
F337.9215841293335
sg16
F337.50080513954163
sg17
g1090
sg22
g1091
sg24
I9
sg25
I5
sa(dp1131
g4
I00
sg5
F59
sg6
(lp1132
(F963
F149
tp1133
ag1097
a(F734
F737
tp1134
a(F431
F500
tp1135
a(F1046
F390
tp1136
asg11
I1
sg12
(lp1137
g1135
asg14
F338.56777310371399
sg15
F338.90155100822449
sg16
F338.65079712867737
sg17
g1090
sg22
g1091
sg24
I9
sg25
I5
sa(dp1138
g4
I00
sg5
F3
sg6
(lp1139
(F563
F122
tp1140
a(F523
F788
tp1141
ag1134
a(F693
F367
tp1142
asg11
I1
sg12
(lp1143
g1142
asg14
F339.58442616462708
sg15
F339.88427400588989
sg16
F339.61747217178345
sg17
g1090
sg22
g1091
sg24
I9
sg25
I4
sa(dp1144
g4
I00
sg5
F154
sg6
(lp1145
(F372
F382
tp1146
ag1094
a(F772
F866
tp1147
a(F854
F678
tp1148
ag1085
asg11
I1
sg12
(lp1149
g1146
asg14
F340.45110201835632
sg15
F340.84001898765564
sg16
F340.63414311408997
sg17
g1090
sg22
g1091
sg24
I9
sg25
I5
sa(dp1150
g4
I00
sg5
F491
sg6
(lp1151
g1102
ag1107
a(F526
F576
tp1152
asg11
I1
sg12
(lp1153
g1152
asg14
F341.55109405517578
sg15
F342.25372815132141
sg16
F342.06751298904419
sg17
g1090
sg22
g1091
sg24
I9
sg25
I3
sa(dp1154
g4
I00
sg5
F27
sg6
(lp1155
(F805
F97
tp1156
a(F306
F470
tp1157
a(F1042
F764
tp1158
a(F187
F685
tp1159
asg11
I1
sg12
(lp1160
g1157
asg14
F342.93446803092957
sg15
F343.23207902908325
sg16
F342.98419308662415
sg17
g1090
sg22
g1091
sg24
I9
sg25
I4
sa(dp1161
g4
I00
sg5
F152
sg6
(lp1162
(F515
F468
tp1163
ag1133
a(F1130
F90
tp1164
a(F602
F616
tp1165
a(F483
F98
tp1166
asg11
I1
sg12
(lp1167
g1163
asg14
F343.9677951335907
sg15
F344.37363600730896
sg16
F344.15095520019531
sg17
g1090
sg22
g1091
sg24
I9
sg25
I5
sa(dp1168
g4
I00
sg5
F84
sg6
(lp1169
(F382
F137
tp1170
a(F705
F574
tp1171
a(F388
F639
tp1172
asg11
I1
sg12
(lp1173
g1171
asg14
F345.11785316467285
sg15
F345.47006011009216
sg16
F345.23422503471375
sg17
g1090
sg22
g1091
sg24
I9
sg25
I3
sa(dp1174
g4
I00
sg5
F1314
sg6
(lp1175
(F533
F250
tp1176
ag1141
ag1147
asg11
I1
sg12
(lp1177
g1141
asg14
F346.2178750038147
sg15
F347.90197801589966
sg16
F347.55091214179993
sg17
g1090
sg22
g1091
sg24
I9
sg25
I3
sa(dp1178
g4
I00
sg5
F590
sg6
(lp1179
(F146
F326
tp1180
a(F665
F679
tp1181
ag1158
a(F606
F533
tp1182
a(F1015
F586
tp1183
asg11
I1
sg12
(lp1184
g1182
asg14
F348.60124111175537
sg15
F349.45592403411865
sg16
F349.21762108802795
sg17
g1090
sg22
g1091
sg24
I9
sg25
I5
sa(dp1185
g4
I00
sg5
F556
sg6
(lp1186
(F376
F868
tp1187
a(F359
F241
tp1188
ag1106
a(F269
F729
tp1189
a(F1011
F253
tp1190
asg11
I1
sg12
(lp1191
g1106
asg14
F350.16793417930603
sg15
F351.26798605918884
sg16
F350.75099515914917
sg17
g1090
sg22
g1091
sg24
I9
sg25
I5
sa(dp1192
g4
I00
sg5
F107
sg6
(lp1193
g1147
asg11
I1
sg12
(lp1194
g1147
asg14
F351.96795511245728
sg15
F352.42402601242065
sg16
F352.1009681224823
sg17
g1090
sg22
g1091
sg24
I9
sg25
I1
sa(dp1195
g4
I00
sg5
F163
sg6
(lp1196
(F92
F436
tp1197
asg11
I1
sg12
(lp1198
g1197
asg14
F353.18459510803223
sg15
F353.61556911468506
sg16
F353.36767601966858
sg17
g1090
sg22
g1091
sg24
I9
sg25
I1
sa(dp1199
g4
I00
sg5
F18
sg6
(lp1200
g1172
ag1116
a(F303
F139
tp1201
a(F830
F787
tp1202
ag1121
asg11
I1
sg12
(lp1203
g1172
asg14
F354.2846519947052
sg15
F354.69610905647278
sg16
F354.3343710899353
sg17
g1090
sg22
g1091
sg24
I9
sg25
I5
sa(dp1204
g4
I00
sg5
F1062
sg6
(lp1205
(F747
F648
tp1206
a(F94
F694
tp1207
a(F869
F480
tp1208
ag1188
ag1187
asg11
I1
sg12
(lp1209
g1208
asg14
F355.33467817306519
sg15
F356.61191606521606
sg16
F356.41774201393127
sg17
g1090
sg22
g1091
sg24
I9
sg25
I5
saa(dp1210
g170
g171
sg172
g171
sg173
S'3'
sg174
g171
sa.