(lp1
(lp2
(dp3
S'whole_image_condition'
p4
I00
sS'planned_disp_time'
p5
F220
sS'disp_bubbles'
p6
(lp7
(F111
F259
tp8
a(F447
F524
tp9
asS'control_condition'
p10
I1
sS'chosen_bubble'
p11
(lp12
g9
asS'forced_fix_onset'
p13
F79.30786395072937
sS'saccade_offset'
p14
F79.951717853546143
sS'stim_onset'
p15
F79.784834861755371
sS'img'
p16
cnumpy.core.multiarray
scalar
p17
(cnumpy
dtype
p18
(S'S13'
I0
I1
tRp19
(I3
S'|'
NNNI13
I1
I0
tbS'image_135.bmp'
tRp20
sS'first_bubble'
p21
(F175
F491
tp22
sS'trial'
p23
I1
sS'num_bubbles'
p24
I2
sa(dp25
g4
I00
sg5
F134
sg6
(lp26
(F100
F105
tp27
asg10
I1
sg11
(lp28
g27
asg13
F80.583250999450684
sg14
F81.280524969100952
sg15
F80.72913384437561
sg16
g20
sg21
g22
sg23
I1
sg24
I1
sa(dp29
g4
I00
sg5
F380
sg6
(lp30
(F853
F277
tp31
a(F289
F296
tp32
a(F467
F280
tp33
a(F474
F652
tp34
asg10
I1
sg11
(lp35
g33
asg13
F81.861086845397949
sg14
F82.434576034545898
sg15
F82.257093906402588
sg16
g20
sg21
g22
sg23
I1
sg24
I4
sa(dp36
g4
I00
sg5
F37
sg6
(lp37
(F292
F655
tp38
a(F807
F405
tp39
a(F203
F353
tp40
a(F96
F484
tp41
asg10
I1
sg11
(lp42
g38
asg13
F83.194492816925049
sg14
F83.66974401473999
sg15
F83.243121862411499
sg16
g20
sg21
g22
sg23
I1
sg24
I4
sa(dp43
g4
I00
sg5
F445
sg6
(lp44
(F1115
F828
tp45
a(F991
F263
tp46
asg10
I1
sg11
(lp47
g46
asg13
F84.26397705078125
sg14
F84.925817012786865
sg15
F84.722425937652588
sg16
g20
sg21
g22
sg23
I1
sg24
I2
sa(dp48
g4
I00
sg5
F346
sg6
(lp49
(F843
F482
tp50
asg10
I1
sg11
(lp51
g50
asg13
F85.618224859237671
sg14
F86.179337978363037
sg15
F85.979315996170044
sg16
g20
sg21
g22
sg23
I1
sg24
I1
sa(dp52
g4
I00
sg5
F412
sg6
(lp53
g32
a(F778
F849
tp54
ag41
a(F238
F574
tp55
asg10
I1
sg11
(lp56
g55
asg13
F86.771031856536865
sg14
F87.395359992980957
sg15
F87.194665908813477
sg16
g20
sg21
g22
sg23
I1
sg24
I4
sa(dp57
g4
I00
sg5
F535
sg6
(lp58
(F538
F578
tp59
a(F1103
F728
tp60
asg10
I1
sg11
(lp61
g59
asg13
F88.069656848907471
sg14
F88.787452936172485
sg15
F88.61843204498291
sg16
g20
sg21
g22
sg23
I1
sg24
I2
sa(dp62
g4
I00
sg5
F327
sg6
(lp63
(F254
F219
tp64
asg10
I1
sg11
(lp65
g64
asg13
F89.465565919876099
sg14
F90.053246974945068
sg15
F89.805896043777466
sg16
g20
sg21
g22
sg23
I1
sg24
I1
sa(dp66
g4
I00
sg5
F12
sg6
(lp67
(F159
F817
tp68
a(F786
F616
tp69
a(F583
F460
tp70
asg10
I1
sg11
(lp71
g70
asg13
F90.70169997215271
sg14
F91.664079904556274
sg15
F90.729544878005981
sg16
g20
sg21
g22
sg23
I1
sg24
I3
sa(dp72
g4
I00
sg5
F326
sg6
(lp73
g41
a(F1155
F135
tp74
asg10
I1
sg11
(lp75
g74
asg13
F92.312903881072998
sg14
F93.259433031082153
sg15
F92.65333890914917
sg16
g20
sg21
g22
sg23
I1
sg24
I2
sa(dp76
g4
I00
sg5
F615
sg6
(lp77
(F1096
F625
tp78
a(F699
F110
tp79
asg10
I1
sg11
(lp80
g78
asg13
F93.917120933532715
sg14
F94.750205039978027
sg15
F94.54216194152832
sg16
g20
sg21
g22
sg23
I1
sg24
I2
sa(dp81
g4
I00
sg5
F708
sg6
(lp82
(F668
F232
tp83
ag41
ag68
a(F314
F517
tp84
asg10
I1
sg11
(lp85
g68
asg13
F95.35467004776001
sg14
F96.46302604675293
sg15
F96.07697582244873
sg16
g20
sg21
g22
sg23
I1
sg24
I4
sa(dp86
g4
I00
sg5
F89
sg6
(lp87
(F357
F590
tp88
asg10
I1
sg11
(lp89
g88
asg13
F97.035298824310303
sg14
F97.368346929550171
sg15
F97.13947582244873
sg16
g20
sg21
g22
sg23
I1
sg24
I1
sa(dp90
g4
I00
sg5
F339
sg6
(lp91
(F441
F371
tp92
a(F464
F134
tp93
a(F113
F380
tp94
asg10
I1
sg11
(lp95
g92
asg13
F98.007575988769531
sg14
F98.541524887084961
sg15
F98.36185884475708
sg16
g20
sg21
g22
sg23
I1
sg24
I3
sa(dp96
g4
I00
sg5
F87
sg6
(lp97
(F122
F588
tp98
a(F1095
F217
tp99
ag93
asg10
I1
sg11
(lp100
g93
asg13
F99.18123197555542
sg14
F99.556838989257812
sg15
F99.278412818908691
sg16
g20
sg21
g22
sg23
I1
sg24
I3
sa(dp101
g4
I00
sg5
F656
sg6
(lp102
(F684
F637
tp103
a(F190
F271
tp104
asg10
I1
sg11
(lp105
g103
asg13
F100.12580299377441
sg14
F100.97476482391357
sg15
F100.79247903823853
sg16
g20
sg21
g22
sg23
I1
sg24
I2
sa(dp106
g4
I00
sg5
F1050
sg6
(lp107
(F948
F418
tp108
a(F1027
F826
tp109
a(F758
F334
tp110
a(F1049
F141
tp111
asg10
I1
sg11
(lp112
g108
asg13
F101.54937291145325
sg14
F102.79859089851379
sg15
F102.61199188232422
sg16
g20
sg21
g22
sg23
I1
sg24
I4
saa(dp113
S'right_bubble'
p114
S'no_memory_task'
p115
sS'correct'
p116
g115
sS'subject_number'
p117
S'104'
p118
sS'left_bubble'
p119
g115
sa(lp120
(dp121
g4
I00
sg5
F93
sg6
(lp122
(F161
F443
tp123
a(F344
F156
tp124
a(F619
F444
tp125
a(F293
F310
tp126
a(F485
F625
tp127
asg10
I1
sg11
(lp128
g125
asg13
F104.63299703598022
sg14
F106.26987981796265
sg15
F106.05656504631042
sg16
g17
(g18
(S'S13'
I0
I1
tRp129
(I3
S'|'
NNNI13
I1
I0
tbS'image_181.bmp'
tRp130
sg21
(F755
F135
tp131
sg23
I2
sg24
I5
sa(dp132
g4
I00
sg5
F784
sg6
(lp133
(F241
F470
tp134
a(F765
F262
tp135
a(F941
F551
tp136
a(F1122
F340
tp137
asg10
I1
sg11
(lp138
g136
asg13
F107.0080189704895
sg14
F107.99697995185852
sg15
F107.80669188499451
sg16
g130
sg21
g131
sg23
I2
sg24
I4
sa(dp139
g4
I00
sg5
F23
sg6
(lp140
(F940
F396
tp141
asg10
I1
sg11
(lp142
g141
asg13
F108.63309097290039
sg14
F108.90370583534241
sg15
F108.66777086257935
sg16
g130
sg21
g131
sg23
I2
sg24
I1
sa(dp143
g4
I00
sg5
F665
sg6
(lp144
(F591
F318
tp145
a(F1001
F822
tp146
a(F635
F675
tp147
ag127
asg10
I1
sg11
(lp148
g147
asg13
F109.59137582778931
sg14
F110.53796601295471
sg15
F110.27214884757996
sg16
g130
sg21
g131
sg23
I2
sg24
I4
sa(dp149
g4
I00
sg5
F277
sg6
(lp150
(F879
F616
tp151
a(F317
F695
tp152
asg10
I1
sg11
(lp153
g151
asg13
F111.25120687484741
sg14
F111.79431581497192
sg15
F111.54295897483826
sg16
g130
sg21
g131
sg23
I2
sg24
I2
sa(dp154
g4
I00
sg5
F139
sg6
(lp155
(F565
F564
tp156
a(F1148
F427
tp157
asg10
I1
sg11
(lp158
g156
asg13
F112.44565200805664
sg14
F112.79024887084961
sg15
F112.59841394424438
sg16
g130
sg21
g131
sg23
I2
sg24
I2
sa(dp159
g4
I00
sg5
F96
sg6
(lp160
(F94
F543
tp161
asg10
I1
sg11
(lp162
g161
asg13
F113.43874382972717
sg14
F113.75417304039001
sg15
F113.54984784126282
sg16
g130
sg21
g131
sg23
I2
sg24
I1
sa(dp163
g4
I00
sg5
F658
sg6
(lp164
g134
asg10
I1
sg11
(lp165
g134
asg13
F114.43878483772278
sg14
F115.2845618724823
sg15
F115.11263489723206
sg16
g130
sg21
g131
sg23
I2
sg24
I1
sa(dp166
g4
I00
sg5
F21
sg6
(lp167
(F1009
F467
tp168
asg10
I1
sg11
(lp169
g168
asg13
F115.91800689697266
sg14
F116.29177689552307
sg15
F115.95273995399475
sg16
g130
sg21
g131
sg23
I2
sg24
I1
sa(dp170
g4
I00
sg5
F130
sg6
(lp171
(F729
F332
tp172
a(F1048
F175
tp173
ag137
asg10
I1
sg11
(lp174
g172
asg13
F116.84168100357056
sg14
F117.17981386184692
sg15
F116.98751497268677
sg16
g130
sg21
g131
sg23
I2
sg24
I3
sa(dp175
g4
I00
sg5
F703
sg6
(lp176
(F439
F531
tp177
asg10
I1
sg11
(lp178
g177
asg13
F117.83483791351318
sg14
F118.72258996963501
sg15
F118.55008888244629
sg16
g130
sg21
g131
sg23
I2
sg24
I1
sa(dp179
g4
I00
sg5
F71
sg6
(lp180
(F897
F828
tp181
a(F275
F615
tp182
a(F1182
F687
tp183
asg10
I1
sg11
(lp184
g181
asg13
F119.32093000411987
sg14
F119.6126229763031
sg15
F119.40423488616943
sg16
g130
sg21
g131
sg23
I2
sg24
I3
sa(dp185
g4
I00
sg5
F0
sg6
(lp186
(F539
F699
tp187
asg10
I1
sg11
(lp188
g187
asg13
F120.25850200653076
sg14
F120.60193681716919
sg15
F120.27932691574097
sg16
g130
sg21
g131
sg23
I2
sg24
I1
sa(dp189
g4
I00
sg5
F467
sg6
(lp190
(F529
F145
tp191
a(F236
F722
tp192
a(F1029
F541
tp193
asg10
I1
sg11
(lp194
g193
asg13
F121.33494591712952
sg14
F122.02643489837646
sg15
F121.81411790847778
sg16
g130
sg21
g131
sg23
I2
sg24
I3
sa(dp195
g4
I00
sg5
F62
sg6
(lp196
(F985
F315
tp197
asg10
I1
sg11
(lp198
g197
asg13
F122.58494091033936
sg14
F122.95548987388611
sg15
F122.6613609790802
sg16
g130
sg21
g131
sg23
I2
sg24
I1
sa(dp199
g4
I00
sg5
F64
sg6
(lp200
(F369
F769
tp201
asg10
I1
sg11
(lp202
g201
asg13
F123.59199690818787
sg14
F123.99832701683044
sg15
F123.66829204559326
sg16
g130
sg21
g131
sg23
I2
sg24
I1
sa(dp203
g4
I00
sg5
F99
sg6
(lp204
(F701
F586
tp205
a(F270
F398
tp206
a(F537
F229
tp207
a(F1090
F746
tp208
asg10
I1
sg11
(lp209
g205
asg13
F124.63370990753174
sg14
F124.94120788574219
sg15
F124.74479699134827
sg16
g130
sg21
g131
sg23
I2
sg24
I4
sa(dp210
g4
I00
sg5
F62
sg6
(lp211
(F208
F343
tp212
asg10
I1
sg11
(lp213
g212
asg13
F125.51566290855408
sg14
F125.97833299636841
sg15
F125.59201288223267
sg16
g130
sg21
g131
sg23
I2
sg24
I1
sa(dp214
g4
I00
sg5
F475
sg6
(lp215
(F1150
F521
tp216
a(F631
F226
tp217
ag192
a(F475
F813
tp218
a(F1034
F394
tp219
asg10
I1
sg11
(lp220
g217
asg13
F126.67540884017944
sg14
F127.34276103973389
sg15
F127.16155099868774
sg16
g130
sg21
g131
sg23
I2
sg24
I5
sa(dp221
g4
I00
sg5
F18
sg6
(lp222
g173
ag216
a(F1080
F831
tp223
asg10
I1
sg11
(lp224
g216
asg13
F128.09911203384399
sg14
F128.47403383255005
sg15
F128.12687802314758
sg16
g130
sg21
g131
sg23
I2
sg24
I3
sa(dp225
g4
I00
sg5
F595
sg6
(lp226
g182
a(F879
F147
tp227
a(F680
F836
tp228
a(F901
F326
tp229
asg10
I1
sg11
(lp230
g229
asg13
F129.0921528339386
sg14
F129.92736601829529
sg15
F129.71048784255981
sg16
g130
sg21
g131
sg23
I2
sg24
I4
sa(dp231
g4
I00
sg5
F0
sg6
(lp232
(F1177
F218
tp233
a(F1089
F595
tp234
a(F433
F222
tp235
asg10
I1
sg11
(lp236
g234
asg13
F130.47415399551392
sg14
F130.79542303085327
sg15
F130.50193190574646
sg16
g130
sg21
g131
sg23
I2
sg24
I3
sa(dp237
g4
I00
sg5
F163
sg6
(lp238
(F1171
F867
tp239
ag219
a(F945
F92
tp240
a(F716
F713
tp241
a(F170
F522
tp242
asg10
I1
sg11
(lp243
g241
asg13
F131.45335698127747
sg14
F131.8345320224762
sg15
F131.62694597244263
sg16
g130
sg21
g131
sg23
I2
sg24
I5
sa(dp244
g4
I00
sg5
F13
sg6
(lp245
(F150
F213
tp246
ag191
asg10
I1
sg11
(lp247
g246
asg13
F132.48812198638916
sg14
F133.23970890045166
sg15
F132.51590585708618
sg16
g130
sg21
g131
sg23
I2
sg24
I2
sa(dp248
g4
I00
sg5
F65
sg6
(lp249
(F483
F314
tp250
ag219
a(F857
F250
tp251
a(F937
F751
tp252
asg10
I1
sg11
(lp253
g250
asg13
F133.86323404312134
sg14
F134.48047089576721
sg15
F133.93956089019775
sg16
g130
sg21
g131
sg23
I2
sg24
I4
sa(dp254
g4
I00
sg5
F897
sg6
(lp255
(F1131
F122
tp256
ag219
asg10
I1
sg11
(lp257
g219
asg13
F135.08554196357727
sg14
F136.16204786300659
sg15
F135.99532103538513
sg16
g130
sg21
g131
sg23
I2
sg24
I2
saa(dp258
g114
g115
sg116
g115
sg117
g118
sg119
g115
sa(lp259
(dp260
g4
I00
sg5
F590
sg6
(lp261
(F125
F453
tp262
a(F506
F194
tp263
a(F953
F846
tp264
a(F613
F371
tp265
asg10
I1
sg11
(lp266
g265
asg13
F137.84419989585876
sg14
F138.67512893676758
sg15
F138.446692943573
sg16
g17
(g18
(S'S13'
I0
I1
tRp267
(I3
S'|'
NNNI13
I1
I0
tbS'image_170.bmp'
tRp268
sg21
(F578
F783
tp269
sg23
I3
sg24
I4
sa(dp270
g4
I00
sg5
F703
sg6
(lp271
(F1132
F390
tp272
asg10
I1
sg11
(lp273
g272
asg13
F139.28013181686401
sg14
F140.19139695167542
sg15
F139.99540901184082
sg16
g268
sg21
g269
sg23
I3
sg24
I1
sa(dp274
g4
I00
sg5
F544
sg6
(lp275
(F325
F461
tp276
a(F391
F244
tp277
a(F1116
F129
tp278
a(F526
F108
tp279
a(F181
F112
tp280
asg10
I1
sg11
(lp281
g276
asg13
F140.87739491462708
sg14
F141.77339386940002
sg15
F141.43298196792603
sg16
g268
sg21
g269
sg23
I3
sg24
I5
sa(dp282
g4
I00
sg5
F94
sg6
(lp283
(F119
F549
tp284
a(F1083
F807
tp285
asg10
I1
sg11
(lp286
g284
asg13
F142.44686794281006
sg14
F142.79353094100952
sg15
F142.55101704597473
sg16
g268
sg21
g269
sg23
I3
sg24
I2
sa(dp287
g4
I00
sg5
F178
sg6
(lp288
(F622
F855
tp289
asg10
I1
sg11
(lp290
g289
asg13
F143.46777081489563
sg14
F143.85416698455811
sg15
F143.65540504455566
sg16
g268
sg21
g269
sg23
I3
sg24
I1
sa(dp291
g4
I00
sg5
F172
sg6
(lp292
(F863
F582
tp293
asg10
I1
sg11
(lp294
g293
asg13
F144.4956419467926
sg14
F144.88076281547546
sg15
F144.68326997756958
sg16
g268
sg21
g269
sg23
I3
sg24
I1
sa(dp295
g4
I00
sg5
F283
sg6
(lp296
(F773
F423
tp297
a(F774
F215
tp298
asg10
I1
sg11
(lp299
g297
asg13
F145.59284591674805
sg14
F146.09528303146362
sg15
F145.89152598381042
sg16
g268
sg21
g269
sg23
I3
sg24
I2
sa(dp300
g4
I00
sg5
F232
sg6
(lp301
(F575
F559
tp302
ag262
a(F831
F715
tp303
asg10
I1
sg11
(lp304
g302
asg13
F146.79432082176208
sg14
F147.23948097229004
sg15
F147.03739881515503
sg16
g268
sg21
g269
sg23
I3
sg24
I3
sa(dp305
g4
I00
sg5
F355
sg6
(lp306
(F441
F752
tp307
asg10
I1
sg11
(lp308
g307
asg13
F147.86373496055603
sg14
F148.39777588844299
sg15
F148.23179483413696
sg16
g268
sg21
g269
sg23
I3
sg24
I1
sa(dp309
g4
I00
sg5
F168
sg6
(lp310
(F237
F190
tp311
a(F244
F485
tp312
a(F222
F708
tp313
ag303
a(F357
F318
tp314
asg10
I1
sg11
(lp315
g313
asg13
F149.05825781822205
sg14
F149.50018882751465
sg15
F149.23879599571228
sg16
g268
sg21
g269
sg23
I3
sg24
I5
sa(dp316
g4
I00
sg5
F951
sg6
(lp317
(F781
F613
tp318
a(F470
F499
tp319
a(F460
F840
tp320
a(F728
F786
tp321
asg10
I1
sg11
(lp322
g319
asg13
F150.23893284797668
sg14
F151.37246084213257
sg15
F151.20421886444092
sg16
g268
sg21
g269
sg23
I3
sg24
I4
sa(dp323
g4
I00
sg5
F65
sg6
(lp324
(F1180
F828
tp325
a(F176
F328
tp326
a(F319
F688
tp327
a(F762
F98
tp328
a(F692
F421
tp329
asg10
I1
sg11
(lp330
g329
asg13
F152.05840182304382
sg14
F152.31425499916077
sg15
F152.13475203514099
sg16
g268
sg21
g269
sg23
I3
sg24
I5
sa(dp331
g4
I00
sg5
F376
sg6
(lp332
g318
ag325
a(F951
F684
tp333
asg10
I1
sg11
(lp334
g333
asg13
F152.9195568561554
sg14
F153.75672483444214
sg15
F153.30846405029297
sg16
g268
sg21
g269
sg23
I3
sg24
I3
sa(dp335
g4
I00
sg5
F39
sg6
(lp336
g314
asg10
I1
sg11
(lp337
g314
asg13
F154.42656683921814
sg14
F154.73599791526794
sg15
F154.47517895698547
sg16
g268
sg21
g269
sg23
I3
sg24
I1
sa(dp338
g4
I00
sg5
F58
sg6
(lp339
(F1173
F486
tp340
a(F1006
F348
tp341
ag264
a(F709
F865
tp342
a(F116
F231
tp343
asg10
I1
sg11
(lp344
g342
asg13
F155.46134686470032
sg14
F155.73198986053467
sg15
F155.53079891204834
sg16
g268
sg21
g269
sg23
I3
sg24
I5
sa(dp345
g4
I00
sg5
F149
sg6
(lp346
(F404
F622
tp347
asg10
I1
sg11
(lp348
g347
asg13
F156.46839189529419
sg14
F156.82009482383728
sg15
F156.6280460357666
sg16
g268
sg21
g269
sg23
I3
sg24
I1
sa(dp349
g4
I00
sg5
F163
sg6
(lp350
(F101
F345
tp351
a(F840
F497
tp352
asg10
I1
sg11
(lp353
g352
asg13
F157.44066786766052
sg14
F157.80638194084167
sg15
F157.61421489715576
sg16
g268
sg21
g269
sg23
I3
sg24
I2
sa(dp354
g4
I00
sg5
F62
sg6
(lp355
(F647
F686
tp356
a(F600
F466
tp357
a(F488
F612
tp358
ag285
asg10
I1
sg11
(lp359
g356
asg13
F158.46840596199036
sg14
F158.71711301803589
sg15
F158.54487299919128
sg16
g268
sg21
g269
sg23
I3
sg24
I4
sa(dp360
g4
I00
sg5
F69
sg6
(lp361
(F1174
F716
tp362
ag277
a(F284
F391
tp363
a(F136
F658
tp364
asg10
I1
sg11
(lp365
g363
asg13
F159.34350490570068
sg14
F159.90370988845825
sg15
F159.42676901817322
sg16
g268
sg21
g269
sg23
I3
sg24
I4
sa(dp366
g4
I00
sg5
F191
sg6
(lp367
g263
ag280
a(F914
F289
tp368
asg10
I1
sg11
(lp369
g368
asg13
F160.5865490436554
sg14
F161.03924798965454
sg15
F160.78796887397766
sg16
g268
sg21
g269
sg23
I3
sg24
I3
sa(dp370
g4
I00
sg5
F71
sg6
(lp371
g280
a(F535
F384
tp372
ag264
asg10
I1
sg11
(lp373
g372
asg13
F161.63523197174072
sg14
F161.95057487487793
sg15
F161.71848201751709
sg16
g268
sg21
g269
sg23
I3
sg24
I3
sa(dp374
g4
I00
sg5
F72
sg6
(lp375
g358
a(F818
F813
tp376
ag343
a(F686
F517
tp377
asg10
I1
sg11
(lp378
g377
asg13
F162.60746192932129
sg14
F162.8476779460907
sg15
F162.69073295593262
sg16
g268
sg21
g269
sg23
I3
sg24
I4
sa(dp379
g4
I00
sg5
F252
sg6
(lp380
g320
a(F1022
F206
tp381
asg10
I1
sg11
(lp382
g320
asg13
F163.45468783378601
sg14
F164.317950963974
sg15
F163.7187168598175
sg16
g268
sg21
g269
sg23
I3
sg24
I2
sa(dp383
g4
I00
sg5
F251
sg6
(lp384
(F923
F476
tp385
ag327
a(F349
F171
tp386
a(F497
F316
tp387
asg10
I1
sg11
(lp388
g385
asg13
F164.94779992103577
sg14
F165.37601685523987
sg15
F165.21180391311646
sg16
g268
sg21
g269
sg23
I3
sg24
I4
saa(dp389
g114
g115
sg116
g115
sg117
g118
sg119
g115
sa(lp390
(dp391
g4
I00
sg5
F321
sg6
(lp392
(F1040
F745
tp393
a(F701
F235
tp394
a(F417
F235
tp395
a(F1189
F204
tp396
a(F519
F832
tp397
asg10
I1
sg11
(lp398
g394
asg13
F168.28830599784851
sg14
F169.61536192893982
sg15
F168.62165784835815
sg16
g17
(g18
(S'S13'
I0
I1
tRp399
(I3
S'|'
NNNI13
I1
I0
tbS'image_177.bmp'
tRp400
sg21
(F840
F97
tp401
sg23
I4
sg24
I5
sa(dp402
g4
I00
sg5
F454
sg6
(lp403
(F389
F322
tp404
a(F564
F643
tp405
a(F362
F651
tp406
asg10
I1
sg11
(lp407
g405
asg13
F170.3230140209198
sg14
F170.97165393829346
sg15
F170.78838491439819
sg16
g400
sg21
g401
sg23
I4
sg24
I3
sa(dp408
g4
I00
sg5
F167
sg6
(lp409
(F1161
F707
tp410
a(F226
F362
tp411
asg10
I1
sg11
(lp412
g410
asg13
F171.6564679145813
sg14
F172.03052687644958
sg15
F171.83696889877319
sg16
g400
sg21
g401
sg23
I4
sg24
I2
sa(dp413
g4
I00
sg5
F99
sg6
(lp414
(F292
F290
tp415
a(F130
F704
tp416
a(F547
F725
tp417
a(F697
F411
tp418
asg10
I1
sg11
(lp419
g417
asg13
F172.62870693206787
sg14
F173.14020490646362
sg15
F172.73978900909424
sg16
g400
sg21
g401
sg23
I4
sg24
I4
sa(dp420
g4
I00
sg5
F280
sg6
(lp421
(F946
F849
tp422
a(F742
F322
tp423
a(F990
F280
tp424
a(F1139
F629
tp425
asg10
I1
sg11
(lp426
g423
asg13
F173.78150987625122
sg14
F174.95237684249878
sg15
F174.07321500778198
sg16
g400
sg21
g401
sg23
I4
sg24
I4
sa(dp427
g4
I00
sg5
F42
sg6
(lp428
(F296
F535
tp429
a(F1028
F844
tp430
a(F648
F633
tp431
a(F1036
F575
tp432
a(F733
F788
tp433
asg10
I1
sg11
(lp434
g431
asg13
F175.66352486610413
sg14
F175.89517188072205
sg15
F175.71906089782715
sg16
g400
sg21
g401
sg23
I4
sg24
I5
sa(dp435
g4
I00
sg5
F85
sg6
(lp436
(F526
F188
tp437
a(F859
F602
tp438
a(F940
F464
tp439
asg10
I1
sg11
(lp440
g438
asg13
F176.55944895744324
sg14
F176.88923788070679
sg15
F176.65660285949707
sg16
g400
sg21
g401
sg23
I4
sg24
I3
sa(dp441
g4
I00
sg5
F14
sg6
(lp442
(F430
F541
tp443
ag415
a(F1173
F520
tp444
a(F711
F107
tp445
a(F138
F138
tp446
asg10
I1
sg11
(lp447
g443
asg13
F177.51083183288574
sg14
F177.82136702537537
sg15
F177.53866195678711
sg16
g400
sg21
g401
sg23
I4
sg24
I5
sa(dp448
g4
I00
sg5
F124
sg6
(lp449
(F683
F493
tp450
a(F988
F383
tp451
a(F391
F858
tp452
a(F230
F174
tp453
a(F176
F464
tp454
asg10
I1
sg11
(lp455
g450
asg13
F178.44841194152832
sg14
F178.75787782669067
sg15
F178.58725094795227
sg16
g400
sg21
g401
sg23
I4
sg24
I5
sa(dp456
g4
I00
sg5
F975
sg6
(lp457
g404
a(F618
F271
tp458
ag411
ag397
asg10
I1
sg11
(lp459
g397
asg13
F179.39987993240356
sg14
F180.62202882766724
sg15
F180.38591003417969
sg16
g400
sg21
g401
sg23
I4
sg24
I4
sa(dp460
g4
I00
sg5
F501
sg6
(lp461
(F129
F563
tp462
ag425
a(F1022
F484
tp463
asg10
I1
sg11
(lp464
g463
asg13
F181.24014687538147
sg14
F181.9492290019989
sg15
F181.75409293174744
sg16
g400
sg21
g401
sg23
I4
sg24
I3
sa(dp465
g4
I00
sg5
F390
sg6
(lp466
(F461
F144
tp467
asg10
I1
sg11
(lp468
g467
asg13
F182.65697383880615
sg14
F183.36167788505554
sg15
F183.05976486206055
sg16
g400
sg21
g401
sg23
I4
sg24
I1
sa(dp469
g4
I00
sg5
F191
sg6
(lp470
(F300
F817
tp471
ag458
a(F1115
F822
tp472
asg10
I1
sg11
(lp473
g458
asg13
F184.06671190261841
sg14
F185.38672184944153
sg15
F184.26829791069031
sg16
g400
sg21
g401
sg23
I4
sg24
I3
sa(dp474
g4
I00
sg5
F306
sg6
(lp475
g415
ag446
a(F958
F771
tp476
a(F409
F462
tp477
asg10
I1
sg11
(lp478
g477
asg13
F185.98339796066284
sg14
F186.5077428817749
sg15
F186.30290603637695
sg16
g400
sg21
g401
sg23
I4
sg24
I4
sa(dp479
g4
I00
sg5
F276
sg6
(lp480
(F1112
F246
tp481
a(F617
F780
tp482
a(F1171
F413
tp483
a(F808
F239
tp484
asg10
I1
sg11
(lp485
g484
asg13
F187.16400384902954
sg14
F187.64280486106873
sg15
F187.45581603050232
sg16
g400
sg21
g401
sg23
I4
sg24
I4
sa(dp486
g4
I00
sg5
F60
sg6
(lp487
g452
asg10
I1
sg11
(lp488
g452
asg13
F188.28905200958252
sg14
F188.70142388343811
sg15
F188.35853004455566
sg16
g400
sg21
g401
sg23
I4
sg24
I1
sa(dp489
g4
I00
sg5
F359
sg6
(lp490
(F1099
F446
tp491
ag418
a(F208
F537
tp492
asg10
I1
sg11
(lp493
g418
asg13
F189.38632202148438
sg14
F189.95781803131104
sg15
F189.76139688491821
sg16
g400
sg21
g401
sg23
I4
sg24
I3
sa(dp494
g4
I00
sg5
F102
sg6
(lp495
(F497
F497
tp496
ag454
ag433
asg10
I1
sg11
(lp497
g496
asg13
F190.65719389915466
sg14
F191.13108587265015
sg15
F190.77529382705688
sg16
g400
sg21
g401
sg23
I4
sg24
I3
sa(dp498
g4
I00
sg5
F467
sg6
(lp499
(F623
F113
tp500
asg10
I1
sg11
(lp501
g500
asg13
F191.79614496231079
sg14
F193.70209884643555
sg15
F192.27544283866882
sg16
g400
sg21
g401
sg23
I4
sg24
I1
sa(dp502
g4
I00
sg5
F46
sg6
(lp503
g439
asg10
I1
sg11
(lp504
g439
asg13
F194.26856303215027
sg14
F194.53725790977478
sg15
F194.33794093132019
sg16
g400
sg21
g401
sg23
I4
sg24
I1
sa(dp505
g4
I00
sg5
F118
sg6
(lp506
g415
ag406
asg10
I1
sg11
(lp507
g406
asg13
F195.24081802368164
sg14
F195.68278288841248
sg15
F195.37265682220459
sg16
g400
sg21
g401
sg23
I4
sg24
I2
sa(dp508
g4
I00
sg5
F736
sg6
(lp509
g411
asg10
I1
sg11
(lp510
g411
asg13
F196.35881781578064
sg14
F197.33774900436401
sg15
F197.10897397994995
sg16
g400
sg21
g401
sg23
I4
sg24
I1
saa(dp511
g114
g115
sg116
g115
sg117
g118
sg119
g115
sa(lp512
(dp513
g4
I00
sg5
F79
sg6
(lp514
(F846
F618
tp515
asg10
I0
sg11
(lp516
g515
asg13
F199.37290382385254
sg14
F199.82231903076172
sg15
F199.60205101966858
sg16
g17
(g18
(S'S13'
I0
I1
tRp517
(I3
S'|'
NNNI13
I1
I0
tbS'image_148.bmp'
tRp518
sg21
(F1077
F297
tp519
sg23
I5
sg24
I1
sa(dp520
g4
I00
sg5
F688
sg6
(lp521
(F1084
F209
tp522
a(F696
F695
tp523
a(F323
F419
tp524
a(F1016
F858
tp525
a(F149
F137
tp526
a(F883
F290
tp527
a(F657
F134
tp528
a(F1032
F397
tp529
a(F624
F838
tp530
a(F172
F810
tp531
a(F328
F743
tp532
a(F546
F330
tp533
a(F428
F112
tp534
a(F1017
F652
tp535
a(F461
F862
tp536
a(F850
F122
tp537
asg10
I0
sg11
(lp538
g533
asg13
F199.83821082115173
sg14
F200.95072484016418
sg15
F200.53967499732971
sg16
g518
sg21
g519
sg23
I5
sg24
I16
sa(dp539
g4
I00
sg5
F121
sg6
(lp540
(F479
F588
tp541
a(F152
F539
tp542
a(F211
F187
tp543
a(F111
F335
tp544
a(F1163
F251
tp545
ag532
ag524
ag534
a(F931
F858
tp546
a(F1141
F593
tp547
a(F728
F819
tp548
a(F752
F257
tp549
a(F96
F771
tp550
a(F1040
F140
tp551
a(F546
F864
tp552
a(F960
F355
tp553
asg10
I0
sg11
(lp554
g549
asg13
F200.97015190124512
sg14
F201.31243085861206
sg15
F201.10215783119202
sg16
g518
sg21
g519
sg23
I5
sg24
I16
sa(dp555
g4
I00
sg5
F546
sg6
(lp556
(F845
F809
tp557
a(F1158
F330
tp558
asg10
I0
sg11
(lp559
g557
asg13
F201.33129382133484
sg14
F202.30320286750793
sg15
F201.88681197166443
sg16
g518
sg21
g519
sg23
I5
sg24
I2
sa(dp560
g4
I00
sg5
F871
sg6
(lp561
g522
a(F795
F410
tp562
a(F479
F676
tp563
a(F544
F432
tp564
a(F383
F278
tp565
a(F236
F717
tp566
ag543
ag544
asg10
I0
sg11
(lp567
g563
asg13
F202.32440304756165
sg14
F203.59045195579529
sg15
F203.20643091201782
sg16
g518
sg21
g519
sg23
I5
sg24
I8
sa(dp568
g4
I00
sg5
F317
sg6
(lp569
g562
ag542
a(F349
F849
tp570
ag552
asg10
I0
sg11
(lp571
g562
asg13
F203.60921788215637
sg14
F204.18253302574158
sg15
F203.93553781509399
sg16
g518
sg21
g519
sg23
I5
sg24
I4
sa(dp572
g4
I00
sg5
F321
sg6
(lp573
g545
a(F217
F305
tp574
a(F101
F450
tp575
a(F1118
F689
tp576
asg10
I0
sg11
(lp577
g574
asg13
F204.19954800605774
sg14
F205.00423884391785
sg15
F204.53281903266907
sg16
g518
sg21
g519
sg23
I5
sg24
I4
sa(dp578
g4
I00
sg5
F34
sg6
(lp579
g541
ag523
asg10
I0
sg11
(lp580
g541
asg13
F205.01902103424072
sg14
F205.44322800636292
sg15
F205.06753396987915
sg16
g518
sg21
g519
sg23
I5
sg24
I2
sa(dp581
g4
I00
sg5
F6
sg6
(lp582
(F914
F754
tp583
a(F279
F490
tp584
a(F575
F195
tp585
ag552
a(F770
F122
tp586
a(F756
F579
tp587
a(F1139
F471
tp588
a(F1143
F129
tp589
asg10
I0
sg11
(lp590
g587
asg13
F205.45661497116089
sg14
F205.70857691764832
sg15
F205.49130392074585
sg16
g518
sg21
g519
sg23
I5
sg24
I8
sa(dp591
g4
I00
sg5
F652
sg6
(lp592
(F231
F92
tp593
asg10
I0
sg11
(lp594
g593
asg13
F205.72750997543335
sg14
F206.88478994369507
sg15
F206.39398097991943
sg16
g518
sg21
g519
sg23
I5
sg24
I1
sa(dp595
g4
I00
sg5
F897
sg6
(lp596
g536
asg10
I0
sg11
(lp597
g536
asg13
F206.90099883079529
sg14
F208.05082392692566
sg15
F207.81073594093323
sg16
g518
sg21
g519
sg23
I5
sg24
I1
sa(dp598
g4
I00
sg5
F72
sg6
(lp599
g535
a(F447
F425
tp600
a(F257
F836
tp601
a(F555
F641
tp602
a(F353
F630
tp603
ag544
ag534
a(F813
F489
tp604
ag584
a(F316
F333
tp605
ag528
a(F756
F336
tp606
ag550
ag525
ag530
ag529
asg10
I0
sg11
(lp607
g602
asg13
F208.06769990921021
sg14
F208.39690184593201
sg15
F208.15103101730347
sg16
g518
sg21
g519
sg23
I5
sg24
I16
sa(dp608
g4
I00
sg5
F287
sg6
(lp609
(F457
F513
tp610
asg10
I0
sg11
(lp611
g610
asg13
F208.41491484642029
sg14
F208.9417028427124
sg15
F208.71358585357666
sg16
g518
sg21
g519
sg23
I5
sg24
I1
sa(dp612
g4
I00
sg5
F528
sg6
(lp613
g544
ag550
ag537
a(F515
F766
tp614
ag527
ag604
ag603
ag558
a(F302
F125
tp615
ag589
ag570
a(F993
F761
tp616
a(F1174
F844
tp617
ag523
a(F636
F275
tp618
ag584
asg10
I0
sg11
(lp619
g604
asg13
F208.95658302307129
sg14
F209.67807388305664
sg15
F209.49831795692444
sg16
g518
sg21
g519
sg23
I5
sg24
I16
sa(dp620
g4
I00
sg5
F55
sg6
(lp621
g552
ag523
asg10
I0
sg11
(lp622
g523
asg13
F209.6927478313446
sg14
F209.97314691543579
sg15
F209.76227283477783
sg16
g518
sg21
g519
sg23
I5
sg24
I2
sa(dp623
g4
I00
sg5
F54
sg6
(lp624
(F232
F579
tp625
a(F961
F124
tp626
asg10
I0
sg11
(lp627
g626
asg13
F209.99153089523315
sg14
F210.37807393074036
sg15
F210.06094694137573
sg16
g518
sg21
g519
sg23
I5
sg24
I2
sa(dp628
g4
I00
sg5
F368
sg6
(lp629
g603
ag565
ag617
ag546
a(F822
F724
tp630
ag558
a(F626
F758
tp631
a(F539
F531
tp632
ag550
a(F140
F219
tp633
a(F405
F795
tp634
ag584
ag528
a(F625
F377
tp635
ag527
ag575
asg10
I0
sg11
(lp636
g631
asg13
F210.39419603347778
sg14
F211.19713592529297
sg15
F210.77625799179077
sg16
g518
sg21
g519
sg23
I5
sg24
I16
sa(dp637
g4
I00
sg5
F1586
sg6
(lp638
g634
a(F661
F559
tp639
ag542
ag553
asg10
I0
sg11
(lp640
g639
asg13
F211.21379494667053
sg14
F213.01182389259338
sg15
F212.81092095375061
sg16
g518
sg21
g519
sg23
I5
sg24
I4
saa(dp641
g114
(lp642
(F521
F238
tp643
asg116
I01
sg117
g118
sg119
(lp644
(F693
F492
tp645
asa(lp646
(dp647
g4
I00
sg5
F291
sg6
(lp648
(F908
F862
tp649
a(F137
F648
tp650
a(F785
F273
tp651
a(F857
F504
tp652
a(F883
F673
tp653
a(F972
F296
tp654
a(F528
F207
tp655
a(F533
F506
tp656
a(F1151
F838
tp657
a(F1059
F601
tp658
a(F173
F382
tp659
a(F1184
F258
tp660
a(F702
F598
tp661
a(F270
F130
tp662
a(F625
F843
tp663
a(F90
F123
tp664
asg10
I0
sg11
(lp665
g656
asg13
F215.70687294006348
sg14
F216.17953085899353
sg15
F216.01263785362244
sg16
g17
(g18
(S'S13'
I0
I1
tRp666
(I3
S'|'
NNNI13
I1
I0
tbS'image_182.bmp'
tRp667
sg21
(F313
F772
tp668
sg23
I6
sg24
I16
sa(dp669
g4
I00
sg5
F305
sg6
(lp670
(F324
F332
tp671
asg10
I0
sg11
(lp672
g671
asg13
F216.19318389892578
sg14
F216.76538586616516
sg15
F216.51257991790771
sg16
g667
sg21
g668
sg23
I6
sg24
I1
sa(dp673
g4
I00
sg5
F31
sg6
(lp674
(F903
F785
tp675
a(F957
F632
tp676
a(F1041
F339
tp677
a(F402
F619
tp678
ag655
a(F619
F386
tp679
a(F704
F209
tp680
ag660
asg10
I0
sg11
(lp681
g679
asg13
F216.78342294692993
sg14
F217.00280904769897
sg15
F216.82494592666626
sg16
g667
sg21
g668
sg23
I6
sg24
I8
sa(dp682
g4
I00
sg5
F53
sg6
(lp683
(F305
F235
tp684
ag651
asg10
I0
sg11
(lp685
g651
asg13
F217.01966094970703
sg14
F217.28549194335938
sg15
F217.08904790878296
sg16
g667
sg21
g668
sg23
I6
sg24
I2
sa(dp686
g4
I00
sg5
F215
sg6
(lp687
g657
a(F401
F429
tp688
asg10
I0
sg11
(lp689
g688
asg13
F217.30423498153687
sg14
F217.82194399833679
sg15
F217.53330898284912
sg16
g667
sg21
g668
sg23
I6
sg24
I2
sa(dp690
g4
I00
sg5
F191
sg6
(lp691
(F1004
F410
tp692
a(F777
F529
tp693
ag684
a(F397
F718
tp694
a(F251
F820
tp695
a(F712
F332
tp696
ag649
a(F915
F115
tp697
ag657
a(F522
F851
tp698
a(F891
F293
tp699
a(F147
F563
tp700
a(F624
F169
tp701
a(F538
F353
tp702
a(F711
F739
tp703
a(F505
F582
tp704
asg10
I0
sg11
(lp705
g702
asg13
F217.83901000022888
sg14
F218.22415685653687
sg15
F218.0403048992157
sg16
g667
sg21
g668
sg23
I6
sg24
I16
sa(dp706
g4
I00
sg5
F360
sg6
(lp707
g701
a(F110
F726
tp708
a(F134
F474
tp709
ag657
ag684
a(F256
F660
tp710
ag653
a(F501
F682
tp711
a(F990
F492
tp712
a(F1120
F184
tp713
a(F329
F484
tp714
ag649
ag703
ag696
a(F909
F206
tp715
a(F1085
F686
tp716
asg10
I0
sg11
(lp717
g712
asg13
F218.24178791046143
sg14
F218.8691680431366
sg15
F218.61664795875549
sg16
g667
sg21
g668
sg23
I6
sg24
I16
sa(dp718
g4
I00
sg5
F471
sg6
(lp719
(F705
F412
tp720
ag694
a(F1060
F254
tp721
ag701
a(F837
F142
tp722
a(F1154
F91
tp723
a(F205
F504
tp724
a(F822
F614
tp725
ag699
a(F488
F441
tp726
ag698
a(F1171
F603
tp727
ag649
ag662
a(F1013
F720
tp728
ag650
asg10
I0
sg11
(lp729
g725
asg13
F218.8875949382782
sg14
F219.55753993988037
sg15
F219.37377500534058
sg16
g667
sg21
g668
sg23
I6
sg24
I16
sa(dp730
g4
I00
sg5
F799
sg6
(lp731
g710
ag654
a(F634
F265
tp732
a(F153
F843
tp733
ag722
a(F617
F92
tp734
ag726
ag698
ag657
ag716
a(F645
F530
tp735
ag723
ag659
a(F829
F809
tp736
a(F1137
F519
tp737
a(F134
F214
tp738
asg10
I0
sg11
(lp739
g735
asg13
F219.57526087760925
sg14
F220.56200289726257
sg15
F220.38779282569885
sg16
g667
sg21
g668
sg23
I6
sg24
I16
sa(dp740
g4
I00
sg5
F781
sg6
(lp741
g694
a(F909
F411
tp742
ag709
ag714
a(F705
F108
tp743
ag736
ag660
a(F479
F300
tp744
a(F587
F767
tp745
ag662
ag723
a(F240
F303
tp746
ag657
ag737
ag728
ag664
asg10
I0
sg11
(lp747
g742
asg13
F220.58224081993103
sg14
F221.57842302322388
sg15
F221.37378287315369
sg16
g667
sg21
g668
sg23
I6
sg24
I16
sa(dp748
g4
I00
sg5
F65
sg6
(lp749
g660
ag676
ag744
ag710
ag698
ag657
ag684
ag724
asg10
I0
sg11
(lp750
g660
asg13
F221.59599590301514
sg14
F221.91075801849365
sg15
F221.67244791984558
sg16
g667
sg21
g668
sg23
I6
sg24
I8
sa(dp751
g4
I01
sg5
F850
sg6
(lp752
sg10
I0
sg11
(lp753
(F1044.0999755859375
F273.70001220703125
tp754
asg13
F221.929358959198
sg14
F222.922611951828
sg15
F222.79010796546936
sg16
g667
sg21
g668
sg23
I6
sg24
I0
sa(dp755
g4
I00
sg5
F982
sg6
(lp756
g720
ag650
ag736
ag657
a(F447
F783
tp757
ag728
a(F628
F651
tp758
ag680
ag662
ag723
ag663
ag727
a(F420
F510
tp759
a(F1188
F347
tp760
a(F296
F406
tp761
ag744
asg10
I0
sg11
(lp762
g744
asg13
F222.93638896942139
sg14
F224.30234384536743
sg15
F223.92945790290833
sg16
g667
sg21
g668
sg23
I6
sg24
I16
sa(dp763
g4
I00
sg5
F73
sg6
(lp764
(F1188
F453
tp765
ag657
ag697
ag761
asg10
I0
sg11
(lp766
g761
asg13
F224.31832504272461
sg14
F224.73537588119507
sg15
F224.40162086486816
sg16
g667
sg21
g668
sg23
I6
sg24
I4
sa(dp767
g4
I00
sg5
F590
sg6
(lp768
g727
asg10
I0
sg11
(lp769
g727
asg13
F224.75596690177917
sg14
F225.71595883369446
sg15
F225.36013293266296
sg16
g667
sg21
g668
sg23
I6
sg24
I1
saa(dp770
g114
(lp771
(F380
F718
tp772
asg116
I01
sg117
g118
sg119
(lp773
(F114
F375
tp774
asa(lp775
(dp776
g4
I00
sg5
F350
sg6
(lp777
(F760
F138
tp778
a(F389
F733
tp779
a(F480
F184
tp780
a(F897
F279
tp781
a(F398
F346
tp782
a(F720
F610
tp783
a(F130
F236
tp784
a(F1106
F158
tp785
asg10
I0
sg11
(lp786
g783
asg13
F227.71433901786804
sg14
F228.27546000480652
sg15
F228.07545590400696
sg16
g17
(g18
(S'S13'
I0
I1
tRp787
(I3
S'|'
NNNI13
I1
I0
tbS'image_180.bmp'
tRp788
sg21
(F588
F437
tp789
sg23
I7
sg24
I8
sa(dp790
g4
I01
sg5
F466
sg6
(lp791
sg10
I0
sg11
(lp792
(F678.20001220703125
F469.5
tp793
asg13
F228.29084181785583
sg14
F228.99975085258484
sg15
F228.76956582069397
sg16
g788
sg21
g789
sg23
I7
sg24
I0
sa(dp794
g4
I00
sg5
F148
sg6
(lp795
(F951
F351
tp796
a(F247
F373
tp797
ag785
a(F564
F703
tp798
a(F862
F607
tp799
a(F890
F185
tp800
a(F756
F787
tp801
a(F214
F639
tp802
a(F497
F524
tp803
ag779
a(F792
F347
tp804
ag784
a(F90
F464
tp805
a(F443
F258
tp806
a(F269
F126
tp807
a(F605
F324
tp808
asg10
I0
sg11
(lp809
g806
asg13
F229.01303386688232
sg14
F229.43880701065063
sg15
F229.17270088195801
sg16
g788
sg21
g789
sg23
I7
sg24
I16
sa(dp810
g4
I01
sg5
F165
sg6
(lp811
sg10
I0
sg11
(lp812
(F446.20001220703125
F412.4000244140625
tp813
asg13
F229.45750498771667
sg14
F230.19175982475281
sg15
F229.63766193389893
sg16
g788
sg21
g789
sg23
I7
sg24
I0
sa(dp814
g4
I00
sg5
F104
sg6
(lp815
(F190
F503
tp816
a(F382
F207
tp817
asg10
I0
sg11
(lp818
g816
asg13
F230.20765495300293
sg14
F230.69424104690552
sg15
F230.32553482055664
sg16
g788
sg21
g789
sg23
I7
sg24
I2
sa(dp819
g4
I00
sg5
F27
sg6
(lp820
g782
asg10
I0
sg11
(lp821
g782
asg13
F230.70752382278442
sg14
F230.94638800621033
sg15
F230.74911499023438
sg16
g788
sg21
g789
sg23
I7
sg24
I1
sa(dp822
g4
I00
sg5
F424
sg6
(lp823
(F994
F826
tp824
ag803
a(F258
F783
tp825
a(F989
F423
tp826
a(F1060
F231
tp827
a(F678
F196
tp828
a(F679
F745
tp829
a(F231
F227
tp830
a(F95
F788
tp831
a(F1186
F722
tp832
a(F129
F385
tp833
a(F787
F525
tp834
a(F463
F799
tp835
a(F529
F255
tp836
a(F888
F108
tp837
a(F115
F91
tp838
asg10
I0
sg11
(lp839
g834
asg13
F230.96440100669861
sg14
F231.57777094841003
sg15
F231.40202593803406
sg16
g788
sg21
g789
sg23
I7
sg24
I16
sa(dp840
g4
I00
sg5
F123
sg6
(lp841
(F533
F601
tp842
ag824
ag833
ag836
asg10
I0
sg11
(lp843
g842
asg13
F231.59643602371216
sg14
F231.99969887733459
sg15
F231.73544788360596
sg16
g788
sg21
g789
sg23
I7
sg24
I4
sa(dp844
g4
I01
sg5
F334
sg6
(lp845
sg10
I0
sg11
(lp846
(F994.4000244140625
F417.5999755859375
tp847
asg13
F232.02030491828918
sg14
F232.92547798156738
sg15
F232.36699891090393
sg16
g788
sg21
g789
sg23
I7
sg24
I0
sa(dp848
g4
I00
sg5
F1192
sg6
(lp849
(F1175
F477
tp850
asg10
I0
sg11
(lp851
g850
asg13
F232.93679285049438
sg14
F234.34905886650085
sg15
F234.1382520198822
sg16
g788
sg21
g789
sg23
I7
sg24
I1
sa(dp852
g4
I00
sg5
F22
sg6
(lp853
(F672
F116
tp854
a(F903
F688
tp855
ag803
ag833
a(F647
F672
tp856
a(F508
F862
tp857
ag830
ag838
ag785
ag804
ag779
ag832
a(F478
F103
tp858
a(F107
F590
tp859
a(F132
F864
tp860
a(F288
F558
tp861
asg10
I0
sg11
(lp862
g804
asg13
F234.36741089820862
sg14
F234.58050489425659
sg15
F234.40206289291382
sg16
g788
sg21
g789
sg23
I7
sg24
I16
sa(dp863
g4
I00
sg5
F145
sg6
(lp864
(F680
F533
tp865
ag854
a(F449
F455
tp866
a(F1083
F764
tp867
asg10
I0
sg11
(lp868
g865
asg13
F234.59654498100281
sg14
F234.99381995201111
sg15
F234.75633001327515
sg16
g788
sg21
g789
sg23
I7
sg24
I4
sa(dp869
g4
I00
sg5
F96
sg6
(lp870
g803
ag802
ag796
ag800
a(F1085
F665
tp871
ag833
ag830
ag860
asg10
I0
sg11
(lp872
g803
asg13
F235.01321983337402
sg14
F235.3581600189209
sg15
F235.12448501586914
sg16
g788
sg21
g789
sg23
I7
sg24
I8
sa(dp873
g4
I00
sg5
F41
sg6
(lp874
g867
ag800
ag833
a(F606
F776
tp875
ag808
a(F314
F297
tp876
ag780
a(F1018
F596
tp877
asg10
I0
sg11
(lp878
g808
asg13
F235.37437582015991
sg14
F235.66161799430847
sg15
F235.42991399765015
sg16
g788
sg21
g789
sg23
I7
sg24
I8
sa(dp879
g4
I00
sg5
F347
sg6
(lp880
g826
ag807
a(F843
F822
tp881
a(F178
F792
tp882
ag784
ag805
ag798
a(F1020
F142
tp883
ag781
a(F342
F824
tp884
a(F589
F867
tp885
a(F1183
F170
tp886
ag797
ag854
ag861
ag858
asg10
I0
sg11
(lp887
g781
asg13
F235.67996597290039
sg14
F236.46388697624207
sg15
F236.04122304916382
sg16
g788
sg21
g789
sg23
I7
sg24
I16
sa(dp888
g4
I00
sg5
F314
sg6
(lp889
g854
ag826
ag833
ag830
asg10
I0
sg11
(lp890
g854
asg13
F236.47860097885132
sg14
F236.99246096611023
sg15
F236.80496501922607
sg16
g788
sg21
g789
sg23
I7
sg24
I4
sa(dp891
g4
I00
sg5
F672
sg6
(lp892
g833
ag831
asg10
I0
sg11
(lp893
g833
asg13
F237.00636100769043
sg14
F237.90580582618713
sg15
F237.69413304328918
sg16
g788
sg21
g789
sg23
I7
sg24
I2
sa(dp894
g4
I00
sg5
F144
sg6
(lp895
g882
a(F395
F118
tp896
a(F182
F164
tp897
a(F808
F704
tp898
ag827
a(F739
F457
tp899
ag826
a(F468
F656
tp900
a(F669
F834
tp901
ag884
ag861
a(F775
F270
tp902
a(F1188
F574
tp903
ag856
ag857
ag859
asg10
I0
sg11
(lp904
g861
asg13
F237.9232919216156
sg14
F238.31066083908081
sg15
F238.08290004730225
sg16
g788
sg21
g789
sg23
I7
sg24
I16
sa(dp905
g4
I00
sg5
F178
sg6
(lp906
g837
a(F1142
F835
tp907
ag860
ag797
a(F689
F346
tp908
ag829
a(F612
F599
tp909
ag799
asg10
I0
sg11
(lp910
g909
asg13
F238.32590103149414
sg14
F238.81553792953491
sg15
F238.51336002349854
sg16
g788
sg21
g789
sg23
I7
sg24
I8
sa(dp911
g4
I00
sg5
F259
sg6
(lp912
g899
a(F1097
F575
tp913
ag900
ag902
ag827
ag797
ag855
ag866
asg10
I0
sg11
(lp914
g899
asg13
F238.83282494544983
sg14
F239.29366898536682
sg15
F239.10366487503052
sg16
g788
sg21
g789
sg23
I7
sg24
I8
sa(dp915
g4
I00
sg5
F152
sg6
(lp916
(F156
F711
tp917
ag902
asg10
I0
sg11
(lp918
g902
asg13
F239.31223893165588
sg14
F239.77534198760986
sg15
F239.47863602638245
sg16
g788
sg21
g789
sg23
I7
sg24
I2
sa(dp919
g4
I00
sg5
F288
sg6
(lp920
(F750
F866
tp921
asg10
I0
sg11
(lp922
g921
asg13
F239.79123497009277
sg14
F240.53789901733398
sg15
F240.08980989456177
sg16
g788
sg21
g789
sg23
I7
sg24
I1
sa(dp923
g4
I00
sg5
F157
sg6
(lp924
g882
ag855
ag778
ag886
a(F886
F462
tp925
ag797
ag780
ag859
ag784
ag807
a(F345
F662
tp926
ag866
ag884
a(F1050
F359
tp927
ag885
a(F604
F522
tp928
asg10
I0
sg11
(lp929
g855
asg13
F240.55532002449036
sg14
F241.01437187194824
sg15
F240.72185087203979
sg16
g788
sg21
g789
sg23
I7
sg24
I16
saa(dp930
g114
(lp931
(F1076
F419
tp932
asg116
I00
sg117
g118
sg119
(lp933
(F907
F414
tp934
asa(lp935
(dp936
g4
I01
sg5
F37
sg6
(lp937
sg10
I0
sg11
(lp938
(F929.199951171875
F465.9000244140625
tp939
asg13
F244.20808792114258
sg14
F244.65074491500854
sg15
F244.42306184768677
sg16
g17
(g18
(S'S13'
I0
I1
tRp940
(I3
S'|'
NNNI13
I1
I0
tbS'image_151.bmp'
tRp941
sg21
(F1189
F674
tp942
sg23
I8
sg24
I0
sa(dp943
g4
I01
sg5
F9
sg6
(lp944
sg10
I0
sg11
(lp945
(F678.70001220703125
F340.5999755859375
tp946
asg13
F244.66645884513855
sg14
F244.90893197059631
sg15
F244.70075798034668
sg16
g941
sg21
g942
sg23
I8
sg24
I0
sa(dp947
g4
I00
sg5
F214
sg6
(lp948
(F813
F207
tp949
asg10
I0
sg11
(lp950
g949
asg13
F244.92335104942322
sg14
F245.35327291488647
sg15
F245.15257501602173
sg16
g941
sg21
g942
sg23
I8
sg24
I1
sa(dp951
g4
I00
sg5
F64
sg6
(lp952
(F976
F307
tp953
a(F435
F676
tp954
a(F564
F273
tp955
a(F771
F374
tp956
a(F1045
F655
tp957
a(F601
F815
tp958
a(F687
F105
tp959
a(F349
F503
tp960
asg10
I0
sg11
(lp961
g955
asg13
F245.367830991745
sg14
F245.61953783035278
sg15
F245.44422793388367
sg16
g941
sg21
g942
sg23
I8
sg24
I8
sa(dp962
g4
I00
sg5
F51
sg6
(lp963
(F387
F380
tp964
a(F1164
F599
tp965
ag958
a(F892
F242
tp966
a(F347
F693
tp967
a(F657
F623
tp968
a(F118
F274
tp969
a(F951
F476
tp970
asg10
I0
sg11
(lp971
g964
asg13
F245.63877201080322
sg14
F245.87254285812378
sg15
F245.70112800598145
sg16
g941
sg21
g942
sg23
I8
sg24
I8
sa(dp972
g4
I00
sg5
F399
sg6
(lp973
g958
a(F1003
F566
tp974
a(F110
F524
tp975
a(F900
F854
tp976
asg10
I0
sg11
(lp977
g975
asg13
F245.88894391059875
sg14
F246.50250792503357
sg15
F246.29844903945923
sg16
g941
sg21
g942
sg23
I8
sg24
I4
sa(dp978
g4
I00
sg5
F501
sg6
(lp979
g958
a(F247
F595
tp980
a(F1111
F763
tp981
a(F803
F724
tp982
ag954
a(F936
F400
tp983
a(F1101
F247
tp984
a(F581
F612
tp985
asg10
I0
sg11
(lp986
g980
asg13
F246.5206470489502
sg14
F247.25122404098511
sg15
F247.03456401824951
sg16
g941
sg21
g942
sg23
I8
sg24
I8
sa(dp987
g4
I00
sg5
F60
sg6
(lp988
(F311
F249
tp989
asg10
I0
sg11
(lp990
g989
asg13
F247.27068400382996
sg14
F247.56278586387634
sg15
F247.34008383750916
sg16
g941
sg21
g942
sg23
I8
sg24
I1
sa(dp991
g4
I00
sg5
F65
sg6
(lp992
g957
a(F234
F761
tp993
ag959
ag958
asg10
I0
sg11
(lp994
g958
asg13
F247.57640695571899
sg14
F248.36306500434875
sg15
F247.65265297889709
sg16
g941
sg21
g942
sg23
I8
sg24
I4
sa(dp995
g4
I00
sg5
F307
sg6
(lp996
(F1023
F223
tp997
a(F863
F779
tp998
a(F1184
F472
tp999
a(F176
F818
tp1000
a(F778
F113
tp1001
ag985
a(F761
F481
tp1002
ag967
asg10
I0
sg11
(lp1003
g1002
asg13
F248.38186287879944
sg14
F249.07071304321289
sg15
F248.70129799842834
sg16
g941
sg21
g942
sg23
I8
sg24
I8
sa(dp1004
g4
I00
sg5
F360
sg6
(lp1005
(F1043
F147
tp1006
a(F107
F186
tp1007
a(F1056
F392
tp1008
a(F272
F510
tp1009
ag1001
a(F722
F284
tp1010
ag968
ag982
ag965
ag974
a(F1176
F226
tp1011
a(F566
F159
tp1012
ag981
a(F448
F258
tp1013
a(F248
F846
tp1014
a(F454
F560
tp1015
asg10
I0
sg11
(lp1016
g968
asg13
F249.09023404121399
sg14
F249.68601202964783
sg15
F249.46541404724121
sg16
g941
sg21
g942
sg23
I8
sg24
I16
sa(dp1017
g4
I01
sg5
F463
sg6
(lp1018
sg10
I0
sg11
(lp1019
(F901.699951171875
F504.20001220703125
tp1020
asg13
F249.70138096809387
sg14
F250.60700297355652
sg15
F250.17323398590088
sg16
g941
sg21
g942
sg23
I8
sg24
I0
sa(dp1021
g4
I00
sg5
F447
sg6
(lp1022
(F942
F96
tp1023
asg10
I0
sg11
(lp1024
g1023
asg13
F250.61805701255798
sg14
F252.1798198223114
sg15
F251.07648682594299
sg16
g941
sg21
g942
sg23
I8
sg24
I1
sa(dp1025
g4
I00
sg5
F539
sg6
(lp1026
g1008
asg10
I0
sg11
(lp1027
g1008
asg13
F252.19453001022339
sg14
F252.92395997047424
sg15
F252.74316501617432
sg16
g941
sg21
g942
sg23
I8
sg24
I1
sa(dp1028
g4
I00
sg5
F399
sg6
(lp1029
(F239
F137
tp1030
a(F908
F620
tp1031
asg10
I0
sg11
(lp1032
g1031
asg13
F252.93781590461731
sg14
F253.60069894790649
sg15
F253.34738898277283
sg16
g941
sg21
g942
sg23
I8
sg24
I2
sa(dp1033
g4
I00
sg5
F19
sg6
(lp1034
(F783
F822
tp1035
asg10
I0
sg11
(lp1036
g1035
asg13
F253.6182599067688
sg14
F254.12546801567078
sg15
F253.65283584594727
sg16
g941
sg21
g942
sg23
I8
sg24
I1
sa(dp1037
g4
I01
sg5
F142
sg6
(lp1038
sg10
I0
sg11
(lp1039
(F790.9000244140625
F526.79998779296875
tp1040
asg13
F254.1390278339386
sg14
F254.5479040145874
sg15
F254.29136300086975
sg16
g941
sg21
g942
sg23
I8
sg24
I0
sa(dp1041
g4
I00
sg5
F247
sg6
(lp1042
g1001
a(F365
F779
tp1043
ag984
a(F530
F378
tp1044
asg10
I0
sg11
(lp1045
g1044
asg13
F254.56262898445129
sg14
F254.99802398681641
sg15
F254.81958889961243
sg16
g941
sg21
g942
sg23
I8
sg24
I4
sa(dp1046
g4
I00
sg5
F1354
sg6
(lp1047
g982
ag1014
ag1001
ag1010
a(F176
F669
tp1048
a(F196
F264
tp1049
a(F456
F164
tp1050
a(F320
F420
tp1051
asg10
I0
sg11
(lp1052
g1010
asg13
F255.01447701454163
sg14
F256.55867004394531
sg15
F256.3822009563446
sg16
g941
sg21
g942
sg23
I8
sg24
I8
sa(dp1053
g4
I00
sg5
F161
sg6
(lp1054
(F631
F712
tp1055
ag1001
a(F91
F393
tp1056
a(F558
F476
tp1057
ag957
ag953
ag993
ag1012
ag1013
a(F261
F323
tp1058
ag976
a(F116
F868
tp1059
a(F853
F438
tp1060
a(F1109
F496
tp1061
a(F1160
F305
tp1062
a(F114
F100
tp1063
asg10
I0
sg11
(lp1064
g1012
asg13
F256.5696439743042
sg14
F256.93676900863647
sg15
F256.74333882331848
sg16
g941
sg21
g942
sg23
I8
sg24
I16
sa(dp1065
g4
I00
sg5
F906
sg6
(lp1066
(F1023
F858
tp1067
ag1048
asg10
I0
sg11
(lp1068
g1048
asg13
F256.95860600471497
sg14
F258.06353783607483
sg15
F257.87521481513977
sg16
g941
sg21
g942
sg23
I8
sg24
I2
saa(dp1069
g114
(lp1070
(F808
F841
tp1071
asg116
I01
sg117
g118
sg119
(lp1072
(F154
F867
tp1073
asa(lp1074
(dp1075
g4
I00
sg5
F628
sg6
(lp1076
(F725
F317
tp1077
a(F400
F427
tp1078
a(F1121
F283
tp1079
a(F612
F794
tp1080
a(F958
F394
tp1081
a(F232
F834
tp1082
a(F872
F670
tp1083
a(F134
F460
tp1084
a(F1126
F660
tp1085
a(F101
F257
tp1086
a(F916
F99
tp1087
a(F617
F478
tp1088
a(F392
F111
tp1089
a(F1061
F512
tp1090
a(F345
F639
tp1091
a(F953
F860
tp1092
asg10
I0
sg11
(lp1093
g1088
asg13
F260.52820086479187
sg14
F261.16826796531677
sg15
F261.16726493835449
sg16
g17
(g18
(S'S13'
I0
I1
tRp1094
(I3
S'|'
NNNI13
I1
I0
tbS'image_141.bmp'
tRp1095
sg21
(F503
F308
tp1096
sg23
I9
sg24
I16
sa(dp1097
g4
I00
sg5
F420
sg6
(lp1098
(F1046
F112
tp1099
a(F767
F392
tp1100
ag1084
a(F202
F257
tp1101
asg10
I0
sg11
(lp1102
g1084
asg13
F261.18100190162659
sg14
F281.61306190490723
sg15
F261.6116259098053
sg16
g1095
sg21
g1096
sg23
I9
sg24
I4
sa(dp1103
g4
I00
sg5
F324
sg6
(lp1104
(F1041
F263
tp1105
a(F515
F670
tp1106
a(F410
F527
tp1107
ag1087
a(F863
F792
tp1108
a(F860
F256
tp1109
a(F159
F138
tp1110
a(F710
F605
tp1111
asg10
I0
sg11
(lp1112
g1105
asg13
F281.63316488265991
sg14
F282.91526794433594
sg15
F281.96655988693237
sg16
g1095
sg21
g1096
sg23
I9
sg24
I8
sa(dp1113
g4
I00
sg5
F403
sg6
(lp1114
(F853
F344
tp1115
a(F1189
F720
tp1116
a(F341
F483
tp1117
a(F824
F546
tp1118
ag1086
ag1091
a(F663
F159
tp1119
a(F610
F373
tp1120
asg10
I0
sg11
(lp1121
g1115
asg13
F282.93192291259766
sg14
F284.10540986061096
sg15
F283.3485848903656
sg16
g1095
sg21
g1096
sg23
I9
sg24
I8
sa(dp1122
g4
I00
sg5
F1949
sg6
(lp1123
(F260
F146
tp1124
a(F1072
F603
tp1125
ag1120
ag1118
ag1091
a(F1160
F380
tp1126
a(F842
F159
tp1127
a(F692
F693
tp1128
a(F228
F441
tp1129
ag1119
a(F305
F801
tp1130
a(F1156
F867
tp1131
ag1092
ag1086
a(F445
F199
tp1132
a(F134
F669
tp1133
asg10
I0
sg11
(lp1134
g1127
asg13
F284.12647986412048
sg14
F286.14450788497925
sg15
F286.08484888076782
sg16
g1095
sg21
g1096
sg23
I9
sg24
I16
sa(dp1135
g4
I00
sg5
F5
sg6
(lp1136
g1086
a(F701
F506
tp1137
ag1129
ag1125
a(F323
F722
tp1138
a(F671
F248
tp1139
ag1078
a(F145
F854
tp1140
asg10
I0
sg11
(lp1141
g1139
asg13
F286.16124582290649
sg14
F286.74156188964844
sg15
F286.19595789909363
sg16
g1095
sg21
g1096
sg23
I9
sg24
I8
sa(dp1142
g4
I00
sg5
F144
sg6
(lp1143
(F984
F645
tp1144
a(F210
F364
tp1145
ag1132
ag1128
ag1079
a(F851
F473
tp1146
a(F511
F525
tp1147
a(F119
F770
tp1148
asg10
I0
sg11
(lp1149
g1079
asg13
F286.75849199295044
sg14
F291.1297619342804
sg15
F286.91827893257141
sg16
g1095
sg21
g1096
sg23
I9
sg24
I8
sa(dp1150
g4
I00
sg5
F547
sg6
(lp1151
g1120
a(F460
F603
tp1152
ag1111
ag1110
asg10
I0
sg11
(lp1153
g1120
asg13
F291.14753699302673
sg14
F311.71069693565369
sg15
F291.71006393432617
sg16
g1095
sg21
g1096
sg23
I9
sg24
I4
sa(dp1154
g4
I00
sg5
F564
sg6
(lp1155
g1089
a(F129
F336
tp1156
a(F1037
F732
tp1157
a(F440
F815
tp1158
ag1108
a(F1074
F399
tp1159
a(F607
F592
tp1160
ag1100
ag1078
a(F978
F204
tp1161
a(F749
F168
tp1162
a(F1189
F591
tp1163
a(F545
F179
tp1164
ag1118
ag1110
a(F130
F581
tp1165
asg10
I0
sg11
(lp1166
g1161
asg13
F311.73170685768127
sg14
F312.56308698654175
sg15
F312.30814003944397
sg16
g1095
sg21
g1096
sg23
I9
sg24
I16
sa(dp1167
g4
I00
sg5
F171
sg6
(lp1168
g1116
ag1119
ag1148
a(F648
F867
tp1169
ag1111
ag1089
ag1077
ag1090
asg10
I0
sg11
(lp1170
g1090
asg13
F312.5793149471283
sg14
F314.88789892196655
sg15
F312.76644086837769
sg16
g1095
sg21
g1096
sg23
I9
sg24
I8
sa(dp1171
g4
I00
sg5
F807
sg6
(lp1172
(F1117
F797
tp1173
ag1083
ag1147
ag1145
ag1089
ag1080
ag1126
ag1111
ag1162
a(F589
F266
tp1174
ag1081
ag1133
ag1082
ag1117
a(F690
F423
tp1175
ag1110
asg10
I0
sg11
(lp1176
g1126
asg13
F314.90560102462769
sg14
F315.92279386520386
sg15
F315.72494602203369
sg16
g1095
sg21
g1096
sg23
I9
sg24
I16
sa(dp1177
g4
I00
sg5
F607
sg6
(lp1178
g1083
ag1091
a(F1128
F148
tp1179
ag1160
asg10
I0
sg11
(lp1180
g1083
asg13
F315.9408438205719
sg14
F336.55834484100342
sg15
F316.55828285217285
sg16
g1095
sg21
g1096
sg23
I9
sg24
I4
saa(dp1181
g114
(lp1182
(F375
F838
tp1183
asg116
I01
sg117
g118
sg119
(lp1184
(F394
F662
tp1185
asa(lp1186
(dp1187
g4
I00
sg5
F233
sg6
(lp1188
(F727
F860
tp1189
asg10
I0
sg11
(lp1190
g1189
asg13
F341.62180185317993
sg14
F342.09804582595825
sg15
F341.86482286453247
sg16
g17
(g18
(S'S13'
I0
I1
tRp1191
(I3
S'|'
NNNI13
I1
I0
tbS'image_145.bmp'
tRp1192
sg21
(F565
F459
tp1193
sg23
I10
sg24
I1
sa(dp1194
g4
I00
sg5
F123
sg6
(lp1195
(F1013
F324
tp1196
a(F438
F347
tp1197
a(F712
F611
tp1198
a(F462
F719
tp1199
a(F1120
F854
tp1200
a(F288
F853
tp1201
a(F1178
F557
tp1202
a(F808
F392
tp1203
asg10
I0
sg11
(lp1204
g1198
asg13
F342.10788893699646
sg14
F342.49679398536682
sg15
F342.23982191085815
sg16
g1192
sg21
g1193
sg23
I10
sg24
I8
sa(dp1205
g4
I00
sg5
F220
sg6
(lp1206
(F881
F433
tp1207
asg10
I0
sg11
(lp1208
g1207
asg13
F342.51071286201477
sg14
F342.93781590461731
sg15
F342.73993587493896
sg16
g1192
sg21
g1193
sg23
I10
sg24
I1
sa(dp1209
g4
I00
sg5
F177
sg6
(lp1210
(F404
F553
tp1211
a(F800
F243
tp1212
a(F784
F671
tp1213
a(F1180
F106
tp1214
a(F220
F316
tp1215
ag1202
a(F230
F133
tp1216
a(F437
F159
tp1217
asg10
I0
sg11
(lp1218
g1213
asg13
F342.94826698303223
sg14
F343.56934595108032
sg15
F343.13569402694702
sg16
g1192
sg21
g1193
sg23
I10
sg24
I8
sa(dp1219
g4
I00
sg5
F38
sg6
(lp1220
(F928
F784
tp1221
asg10
I0
sg11
(lp1222
g1221
asg13
F343.58724498748779
sg14
F343.8525698184967
sg15
F343.63569784164429
sg16
g1192
sg21
g1193
sg23
I10
sg24
I1
sa(dp1223
g4
I00
sg5
F721
sg6
(lp1224
g1197
a(F660
F745
tp1225
a(F1173
F642
tp1226
ag1217
asg10
I0
sg11
(lp1227
g1225
asg13
F343.87193989753723
sg14
F344.8180878162384
sg15
F344.60805082321167
sg16
g1192
sg21
g1193
sg23
I10
sg24
I4
sa(dp1228
g4
I00
sg5
F67
sg6
(lp1229
(F1125
F165
tp1230
a(F437
F638
tp1231
a(F666
F262
tp1232
a(F923
F205
tp1233
ag1226
ag1200
a(F392
F92
tp1234
a(F736
F103
tp1235
a(F236
F575
tp1236
a(F369
F813
tp1237
a(F133
F355
tp1238
a(F125
F808
tp1239
a(F929
F706
tp1240
a(F601
F589
tp1241
a(F295
F291
tp1242
a(F1064
F491
tp1243
asg10
I0
sg11
(lp1244
g1231
asg13
F344.83022284507751
sg14
F345.14821100234985
sg15
F344.90662884712219
sg16
g1192
sg21
g1193
sg23
I10
sg24
I16
sa(dp1245
g4
I00
sg5
F164
sg6
(lp1246
g1235
asg10
I0
sg11
(lp1247
g1235
asg13
F345.16359686851501
sg14
F345.84790086746216
sg15
F345.33713698387146
sg16
g1192
sg21
g1193
sg23
I10
sg24
I1
sa(dp1248
g4
I00
sg5
F227
sg6
(lp1249
(F967
F436
tp1250
a(F201
F858
tp1251
a(F619
F676
tp1252
ag1202
ag1238
a(F502
F794
tp1253
a(F735
F478
tp1254
a(F312
F671
tp1255
asg10
I0
sg11
(lp1256
g1254
asg13
F345.86500883102417
sg14
F346.30916285514832
sg15
F346.10819697380066
sg16
g1192
sg21
g1193
sg23
I10
sg24
I8
sa(dp1257
g4
I00
sg5
F71
sg6
(lp1258
(F244
F767
tp1259
a(F544
F648
tp1260
asg10
I0
sg11
(lp1261
g1260
asg13
F346.32349586486816
sg14
F346.63331294059753
sg15
F346.40666890144348
sg16
g1192
sg21
g1193
sg23
I10
sg24
I2
sa(dp1262
g4
I00
sg5
F135
sg6
(lp1263
(F758
F331
tp1264
ag1234
ag1250
a(F117
F491
tp1265
a(F611
F857
tp1266
a(F429
F457
tp1267
a(F523
F303
tp1268
a(F597
F99
tp1269
asg10
I0
sg11
(lp1270
g1264
asg13
F346.64978289604187
sg14
F347.05150294303894
sg15
F346.79554796218872
sg16
g1192
sg21
g1193
sg23
I10
sg24
I8
sa(dp1271
g4
I00
sg5
F422
sg6
(lp1272
(F1051
F254
tp1273
ag1255
ag1239
ag1241
a(F838
F112
tp1274
a(F1086
F409
tp1275
a(F490
F90
tp1276
ag1226
asg10
I0
sg11
(lp1277
g1241
asg13
F347.06650495529175
sg14
F347.71741795539856
sg15
F347.50412392616272
sg16
g1192
sg21
g1193
sg23
I10
sg24
I8
sa(dp1278
g4
I00
sg5
F95
sg6
(lp1279
(F361
F731
tp1280
asg10
I0
sg11
(lp1281
g1280
asg13
F347.73321604728699
sg14
F348.10811686515808
sg15
F347.83723902702332
sg16
g1192
sg21
g1193
sg23
I10
sg24
I1
sa(dp1282
g4
I00
sg5
F200
sg6
(lp1283
g1250
ag1215
a(F245
F482
tp1284
a(F1062
F103
tp1285
a(F209
F677
tp1286
ag1276
ag1203
ag1253
a(F848
F733
tp1287
a(F1146
F302
tp1288
ag1216
ag1252
ag1211
a(F696
F175
tp1289
a(F1161
F763
tp1290
a(F585
F383
tp1291
asg10
I0
sg11
(lp1292
g1211
asg13
F348.12923097610474
sg14
F348.36260390281677
sg15
F348.34433698654175
sg16
g1192
sg21
g1193
sg23
I10
sg24
I16
sa(dp1293
g4
I00
sg5
F7
sg6
(lp1294
g1197
ag1201
ag1266
ag1199
asg10
I0
sg11
(lp1295
g1201
asg13
F348.37895703315735
sg14
F348.46395397186279
sg15
F348.40673685073853
sg16
g1192
sg21
g1193
sg23
I10
sg24
I4
sa(dp1296
g4
I00
sg5
F235
sg6
(lp1297
(F108
F236
tp1298
ag1265
ag1232
a(F1027
F172
tp1299
asg10
I0
sg11
(lp1300
g1232
asg13
F348.4762749671936
sg14
F348.95457983016968
sg15
F348.72628998756409
sg16
g1192
sg21
g1193
sg23
I10
sg24
I4
sa(dp1301
g4
I00
sg5
F472
sg6
(lp1302
(F127
F676
tp1303
a(F879
F350
tp1304
asg10
I0
sg11
(lp1305
g1304
asg13
F348.96942090988159
sg14
F349.6390700340271
sg15
F349.45544981956482
sg16
g1192
sg21
g1193
sg23
I10
sg24
I2
sa(dp1306
g4
I00
sg5
F1969
sg6
(lp1307
(F954
F867
tp1308
asg10
I0
sg11
(lp1309
g1308
asg13
F349.65700197219849
sg14
F351.94560503959656
sg15
F351.63618898391724
sg16
g1192
sg21
g1193
sg23
I10
sg24
I1
sa(dp1310
g4
I00
sg5
F105
sg6
(lp1311
g1253
a(F529
F560
tp1312
asg10
I0
sg11
(lp1313
g1253
asg13
F351.96249985694885
sg14
F352.28020882606506
sg15
F352.08049488067627
sg16
g1192
sg21
g1193
sg23
I10
sg24
I2
sa(dp1314
g4
I00
sg5
F830
sg6
(lp1315
g1276
ag1265
a(F1104
F589
tp1316
ag1312
ag1255
a(F960
F100
tp1317
a(F325
F451
tp1318
a(F813
F581
tp1319
asg10
I0
sg11
(lp1320
g1319
asg13
F352.29592204093933
sg14
F353.32697796821594
sg15
F353.13614201545715
sg16
g1192
sg21
g1193
sg23
I10
sg24
I8
saa(dp1321
g114
(lp1322
(F482
F191
tp1323
asg116
I01
sg117
g118
sg119
(lp1324
(F886
F494
tp1325
asa.