(lp1
(lp2
(dp3
S'trial'
p4
I0
sS'disp_bubbles'
p5
(lp6
sS'stim_onset'
p7
F83.336540937423706
sS'img'
p8
cnumpy.core.multiarray
scalar
p9
(cnumpy
dtype
p10
(S'S13'
I0
I1
tRp11
(I3
S'|'
NNNI13
I1
I0
tbS'image_166.bmp'
tRp12
sS'first_bubble'
p13
(F1039
F620
tp14
sS'chosen_bubble'
p15
(lp16
(F640.79998779296875
F558.60000610351562
tp17
asS'forced_fix_onset'
p18
F82.969882011413574
sS'saccade_offset'
p19
F84.738775968551636
sS'planned_disp_time'
p20
F164
sa(dp21
g4
I0
sg5
(lp22
sg7
F85.686423063278198
sg8
g12
sg13
g14
sg15
(lp23
(F1026.0999755859375
F436
tp24
asg18
F85.386527061462402
sg19
F89.186794996261597
sg20
F277
sa(dp25
g4
I0
sg5
(lp26
sg7
F90.053200006484985
sg8
g12
sg13
g14
sg15
(lp27
(F449.79998779296875
F428.9000244140625
tp28
asg18
F89.88663387298584
sg19
F90.236756086349487
sg20
F140
sa(dp29
g4
I0
sg5
(lp30
sg7
F91.803225040435791
sg8
g12
sg13
g14
sg15
(lp31
(F509.4000244140625
F536.60000610351562
tp32
asg18
F90.886631965637207
sg19
F91.96711802482605
sg20
F882
sa(dp33
g4
I0
sg5
(lp34
sg7
F93.619884967803955
sg8
g12
sg13
g14
sg15
(lp35
(F236.5
F721.89999389648438
tp36
asg18
F92.670019865036011
sg19
F94.075371980667114
sg20
F930
sa(dp37
g4
I0
sg5
(lp38
sg7
F94.819947957992554
sg8
g12
sg13
g14
sg15
(lp39
(F142.79998779296875
F396.20001220703125
tp40
asg18
F94.703382015228271
sg19
F95.139227867126465
sg20
F93
sa(dp41
g4
I0
sg5
(lp42
sg7
F96.136590957641602
sg8
g12
sg13
g14
sg15
(lp43
(F312.79998779296875
F364.70001220703125
tp44
asg18
F95.853414058685303
sg19
F96.138422012329102
sg20
F263
sa(dp45
g4
I0
sg5
(lp46
sg7
F97.686693906784058
sg8
g12
sg13
g14
sg15
(lp47
(F660.0999755859375
F542.60000610351562
tp48
asg18
F96.870060920715332
sg19
F97.687341928482056
sg20
F792
sa(dp49
g4
I0
sg5
(lp50
sg7
F98.570010900497437
sg8
g12
sg13
g14
sg15
(lp51
(F778.199951171875
F548.29998779296875
tp52
asg18
F98.303443908691406
sg19
F98.745002031326294
sg20
F247
sa(dp53
g4
I0
sg5
(lp54
sg7
F99.703456878662109
sg8
g12
sg13
g14
sg15
(lp55
(F881.699951171875
F547.60000610351562
tp56
asg18
F99.52012300491333
sg19
F99.853683948516846
sg20
F157
sa(dp57
g4
I0
sg5
(lp58
sg7
F100.73675799369812
sg8
g12
sg13
g14
sg15
(lp59
(F758.9000244140625
F517.70001220703125
tp60
asg18
F100.62013292312622
sg19
F100.98513102531433
sg20
F93
sa(dp61
g4
I0
sg5
(lp62
sg7
F102.00338888168335
sg8
g12
sg13
g14
sg15
(lp63
(F495.29998779296875
F526.79998779296875
tp64
asg18
F101.77016806602478
sg19
F102.004065990448
sg20
F215
sa(dp65
g4
I0
sg5
(lp66
sg7
F103.18672204017639
sg8
g12
sg13
g14
sg15
(lp67
(F610.70001220703125
F577.29998779296875
tp68
asg18
F102.65350484848022
sg19
F103.68338394165039
sg20
F500
sa(dp69
g4
I0
sg5
(lp70
sg7
F104.92010092735291
sg8
g12
sg13
g14
sg15
(lp71
(F815.4000244140625
F615.89999389648438
tp72
asg18
F104.38683485984802
sg19
F104.92081689834595
sg20
F511
sa(dp73
g4
I0
sg5
(lp74
sg7
F105.88683795928955
sg8
g12
sg13
g14
sg15
(lp75
(F203.29998779296875
F530
tp76
asg18
F105.57019805908203
sg19
F106.55697298049927
sg20
F297
sa(dp77
g4
I0
sg5
(lp78
sg7
F107.57019805908203
sg8
g12
sg13
g14
sg15
(lp79
(F583.5999755859375
F367.29998779296875
tp80
asg18
F107.27021288871765
sg19
F107.86293506622314
sg20
F274
sa(dp81
g4
I0
sg5
(lp82
sg7
F108.67013907432556
sg8
g12
sg13
g14
sg15
(lp83
(F814.199951171875
F382
tp84
asg18
F108.57022285461426
sg19
F108.92497897148132
sg20
F81
sa(dp85
g4
I0
sg5
(lp86
sg7
F110.08687090873718
sg8
g12
sg13
g14
sg15
(lp87
(F331.20001220703125
F675.10000610351562
tp88
asg18
F109.63688993453979
sg19
F110.86213803291321
sg20
F425
saa(dp89
S'right_bubble'
p90
S'no_memory_task'
p91
sS'correct'
p92
g91
sS'subject_number'
p93
S'41'
p94
sS'left_bubble'
p95
g91
sa(lp96
(dp97
g4
I1
sg5
(lp98
sg7
F115.98703789710999
sg8
g9
(g10
(S'S13'
I0
I1
tRp99
(I3
S'|'
NNNI13
I1
I0
tbS'image_159.bmp'
tRp100
sg13
(F1100
F694
tp101
sg15
(lp102
(F279.4000244140625
F386.20001220703125
tp103
asg18
F115.63708591461182
sg19
F116.94294500350952
sg20
F120
sa(dp104
g4
I1
sg5
(lp105
sg7
F117.03705501556396
sg8
g100
sg13
g101
sg15
(lp106
(F1178.800048828125
F353.70001220703125
tp107
asg18
F116.97037196159363
sg19
F118.3895468711853
sg20
F40
sa(dp108
g4
I1
sg5
(lp109
sg7
F118.58706402778625
sg8
g100
sg13
g101
sg15
(lp110
(F540.5
F814.10000610351562
tp111
asg18
F118.42039704322815
sg19
F119.26434898376465
sg20
F145
sa(dp112
g4
I1
sg5
(lp113
sg7
F119.47041893005371
sg8
g100
sg13
g101
sg15
(lp114
(F534.79998779296875
F243.4000244140625
tp115
asg18
F119.28708505630493
sg19
F119.98264193534851
sg20
F153
sa(dp116
g4
I1
sg5
(lp117
sg7
F120.20376896858215
sg8
g100
sg13
g101
sg15
(lp118
(F715.4000244140625
F423.4000244140625
tp119
asg18
F120.00373792648315
sg19
F120.61365294456482
sg20
F180
sa(dp120
g4
I1
sg5
(lp121
sg7
F121.47044396400452
sg8
g100
sg13
g101
sg15
(lp122
(F398.4000244140625
F482.20001220703125
tp123
asg18
F120.63708901405334
sg19
F122.12036085128784
sg20
F800
sa(dp124
g4
I1
sg5
(lp125
sg7
F122.98714399337769
sg8
g100
sg13
g101
sg15
(lp126
(F606.29998779296875
F536.29998779296875
tp127
asg18
F122.15376496315002
sg19
F123.20098900794983
sg20
F800
sa(dp128
g4
I1
sg5
(lp129
sg7
F124.22048687934875
sg8
g100
sg13
g101
sg15
(lp130
(F1015.300048828125
F677.5
tp131
asg18
F123.23712301254272
sg19
F124.88582587242126
sg20
F954
sa(dp132
g4
I1
sg5
(lp133
sg7
F125.10384297370911
sg8
g100
sg13
g101
sg15
(lp134
(F732.5
F559.60000610351562
tp135
asg18
F124.92047595977783
sg19
F126.84665489196777
sg20
F153
sa(dp136
g4
I1
sg5
(lp137
sg7
F126.97053408622742
sg8
g100
sg13
g101
sg15
(lp138
(F820.0999755859375
F613.29998779296875
tp139
asg18
F126.87048697471619
sg19
F129.5286910533905
sg20
F67
sa(dp140
g4
I1
sg5
(lp141
sg7
F129.63724398612976
sg8
g100
sg13
g101
sg15
(lp142
(F364.29998779296875
F766.19999694824219
tp143
asg18
F129.55388402938843
sg19
F129.87077307701111
sg20
F57
sa(dp144
g4
I1
sg5
(lp145
sg7
F130.10390901565552
sg8
g100
sg13
g101
sg15
(lp146
(F266.9000244140625
F805
tp147
asg18
F129.90388894081116
sg19
F130.105064868927
sg20
F182
sa(dp148
g4
I1
sg5
(lp149
sg7
F130.40391802787781
sg8
g100
sg13
g101
sg15
(lp150
(F916.5999755859375
F673.39999389648438
tp151
asg18
F130.1371898651123
sg19
F131.83929586410522
sg20
F236
sa(dp152
g4
I1
sg5
(lp153
sg7
F132.00393486022949
sg8
g100
sg13
g101
sg15
(lp154
(F1017.5
F722.89999389648438
tp155
asg18
F131.87057995796204
sg19
F132.32145595550537
sg20
F102
sa(dp156
g4
I1
sg5
(lp157
sg7
F133.12061905860901
sg8
g100
sg13
g101
sg15
(lp158
(F1042.199951171875
F281.29998779296875
tp159
asg18
F132.3539559841156
sg19
F133.74092102050781
sg20
F744
sa(dp160
g4
I1
sg5
(lp161
sg7
F134.30397701263428
sg8
g100
sg13
g101
sg15
(lp162
(F284
F330.4000244140625
tp163
asg18
F133.77060890197754
sg19
F134.77057504653931
sg20
F513
sa(dp164
g4
I1
sg5
(lp165
sg7
F134.97064995765686
sg8
g100
sg13
g101
sg15
(lp166
(F713.9000244140625
F521
tp167
asg18
F134.80397200584412
sg19
F135.65493106842041
sg20
F132
sa(dp168
g4
I1
sg5
(lp169
sg7
F135.78733706474304
sg8
g100
sg13
g101
sg15
(lp170
(F830.4000244140625
F569.5
tp171
asg18
F135.68729305267334
sg19
F135.78872489929199
sg20
F71
sa(dp172
g4
I1
sg5
(lp173
sg7
F136.57068300247192
sg8
g100
sg13
g101
sg15
(lp174
(F285.29998779296875
F585.79998779296875
tp175
asg18
F135.82062005996704
sg19
F137.02441191673279
sg20
F728
saa(dp176
g90
(lp177
(F831
F365
tp178
asg92
(lp179
(F120
F145
tp180
asg93
g94
sg95
I00
sa(lp181
(dp182
g4
I2
sg5
(lp183
sg7
F188.02135992050171
sg8
g9
(g10
(S'S13'
I0
I1
tRp184
(I3
S'|'
NNNI13
I1
I0
tbS'image_176.bmp'
tRp185
sg13
(F839
F311
tp186
sg15
(lp187
(F635.0999755859375
F676.79998779296875
tp188
asg18
F187.7547869682312
sg19
F188.66980290412903
sg20
F149
sa(dp189
g4
I2
sg5
(lp190
sg7
F188.88804006576538
sg8
g185
sg13
g186
sg15
(lp191
(F229.9000244140625
F695.5
tp192
asg18
F188.70476388931274
sg19
F189.15802597999573
sg20
F151
sa(dp193
g4
I2
sg5
(lp194
sg7
F189.25470399856567
sg8
g185
sg13
g186
sg15
(lp195
(F850.4000244140625
F192.70001220703125
tp196
asg18
F189.18811297416687
sg19
F190.04803204536438
sg20
F41
sa(dp197
g4
I2
sg5
(lp198
sg7
F190.65472602844238
sg8
g185
sg13
g186
sg15
(lp199
(F812.5999755859375
F371.5999755859375
tp200
asg18
F190.07146787643433
sg19
F190.6569230556488
sg20
F555
sa(dp201
g4
I2
sg5
(lp202
sg7
F191.05472993850708
sg8
g185
sg13
g186
sg15
(lp203
(F447.0999755859375
F686.10000610351562
tp204
asg18
F190.68814206123352
sg19
F191.05527901649475
sg20
F333
sa(dp205
g4
I2
sg5
(lp206
sg7
F191.2880699634552
sg8
g185
sg13
g186
sg15
(lp207
(F246.0999755859375
F617.5
tp208
asg18
F191.08814191818237
sg19
F191.28875994682312
sg20
F166
sa(dp209
g4
I2
sg5
(lp210
sg7
F192.07140803337097
sg8
g185
sg13
g186
sg15
(lp211
(F764.699951171875
F532.10000610351562
tp212
asg18
F191.32147097587585
sg19
F192.07202506065369
sg20
F731
sa(dp213
g4
I2
sg5
(lp214
sg7
F192.17142105102539
sg8
g185
sg13
g186
sg15
(lp215
(F916.5
F332.70001220703125
tp216
asg18
F192.1048469543457
sg19
F192.17195391654968
sg20
F34
sa(dp217
g4
I2
sg5
(lp218
sg7
F193.1880989074707
sg8
g185
sg13
g186
sg15
(lp219
(F478.5
F542.60000610351562
tp220
asg18
F192.20484805107117
sg19
F193.18877196311951
sg20
F950
sa(dp221
g4
I2
sg5
(lp222
sg7
F193.35476589202881
sg8
g185
sg13
g186
sg15
(lp223
(F159.60000610351562
F715.39999389648438
tp224
asg18
F193.221519947052
sg19
F193.3552839756012
sg20
F103
sa(dp225
g4
I2
sg5
(lp226
sg7
F193.58810091018677
sg8
g185
sg13
g186
sg15
(lp227
(F648.29998779296875
F772.60000610351562
tp228
asg18
F193.38816094398499
sg19
F194.83386707305908
sg20
F175
sa(dp229
g4
I2
sg5
(lp230
sg7
F194.93812990188599
sg8
g185
sg13
g186
sg15
(lp231
(F704.4000244140625
F177.79998779296875
tp232
asg18
F194.85489702224731
sg19
F195.38783502578735
sg20
F56
sa(dp233
g4
I2
sg5
(lp234
sg7
F196.28815197944641
sg8
g185
sg13
g186
sg15
(lp235
(F865.699951171875
F253.29998779296875
tp236
asg18
F195.42154407501221
sg19
F196.29018187522888
sg20
F834
sa(dp237
g4
I2
sg5
(lp238
sg7
F196.55481386184692
sg8
g185
sg13
g186
sg15
(lp239
(F738.5999755859375
F277.79998779296875
tp240
asg18
F196.3215389251709
sg19
F196.55538606643677
sg20
F207
sa(dp241
g4
I2
sg5
(lp242
sg7
F196.83815908432007
sg8
g185
sg13
g186
sg15
(lp243
(F898.199951171875
F586.70001220703125
tp244
asg18
F196.58868288993835
sg19
F196.83882999420166
sg20
F215
sa(dp245
g4
I2
sg5
(lp246
sg7
F197.33816385269165
sg8
g185
sg13
g186
sg15
(lp247
(F197.0999755859375
F639.10000610351562
tp248
asg18
F196.87157487869263
sg19
F197.92365002632141
sg20
F439
sa(dp249
g4
I2
sg5
(lp250
sg7
F198.80485391616821
sg8
g185
sg13
g186
sg15
(lp251
(F723
F637.79998779296875
tp252
asg18
F197.95491886138916
sg19
F200.17400002479553
sg20
F825
sa(dp253
g4
I2
sg5
(lp254
sg7
F200.72154808044434
sg8
g185
sg13
g186
sg15
(lp255
(F816.699951171875
F227.5999755859375
tp256
asg18
F200.20496106147766
sg19
F201.04970407485962
sg20
F498
saa(dp257
g90
(lp258
(F103
F831
tp259
asg92
(lp260
(F475
F794
tp261
asg93
g94
sg95
I01
sa(lp262
(dp263
g4
I3
sg5
(lp264
sg7
F203.43824601173401
sg8
g9
(g10
(S'S13'
I0
I1
tRp265
(I3
S'|'
NNNI13
I1
I0
tbS'image_131.bmp'
tRp266
sg13
(F1048
F90
tp267
sg15
(lp268
(F909.9000244140625
F680.5
tp269
asg18
F203.08832693099976
sg19
F204.04940891265869
sg20
F149
sa(dp270
g4
I3
sg5
(lp271
sg7
F204.25492596626282
sg8
g266
sg13
g267
sg15
(lp272
(F279.29998779296875
F574.29998779296875
tp273
asg18
F204.07167601585388
sg19
F204.6715350151062
sg20
F151
sa(dp274
g4
I3
sg5
(lp275
sg7
F204.77160406112671
sg8
g266
sg13
g267
sg15
(lp276
(F473.70001220703125
F317.70001220703125
tp277
asg18
F204.70503187179565
sg19
F205.11005592346191
sg20
F41
sa(dp278
g4
I3
sg5
(lp279
sg7
F205.72162199020386
sg8
g266
sg13
g267
sg15
(lp280
(F683.5999755859375
F747.60000610351562
tp281
asg18
F205.13836097717285
sg19
F205.95617294311523
sg20
F555
sa(dp282
g4
I3
sg5
(lp283
sg7
F206.35494899749756
sg8
g266
sg13
g267
sg15
(lp284
(F981
F340.4000244140625
tp285
asg18
F205.98837494850159
sg19
F206.74563193321228
sg20
F333
sa(dp286
g4
I3
sg5
(lp287
sg7
F206.97163486480713
sg8
g266
sg13
g267
sg15
(lp288
(F554.5999755859375
F754.79998779296875
tp289
asg18
F206.77173399925232
sg19
F207.39352798461914
sg20
F166
sa(dp290
g4
I3
sg5
(lp291
sg7
F208.17164897918701
sg8
g266
sg13
g267
sg15
(lp292
(F201.5999755859375
F842.10000610351562
tp293
asg18
F207.42172408103943
sg19
F208.459636926651
sg20
F731
sa(dp294
g4
I3
sg5
(lp295
sg7
F208.55498790740967
sg8
g266
sg13
g267
sg15
(lp296
(F187.70001220703125
F257.70001220703125
tp297
asg18
F208.48839402198792
sg19
F209.02777290344238
sg20
F34
sa(dp298
g4
I3
sg5
(lp299
sg7
F210.0383448600769
sg8
g266
sg13
g267
sg15
(lp300
(F596.20001220703125
F434.4000244140625
tp301
asg18
F209.05506992340088
sg19
F210.04021787643433
sg20
F950
sa(dp302
g4
I3
sg5
(lp303
sg7
F210.20501589775085
sg8
g266
sg13
g267
sg15
(lp304
(F1023.699951171875
F582.20001220703125
tp305
asg18
F210.07176399230957
sg19
F210.56536793708801
sg20
F103
sa(dp306
g4
I3
sg5
(lp307
sg7
F210.78835701942444
sg8
g266
sg13
g267
sg15
(lp308
(F683.5
F630.79998779296875
tp309
asg18
F210.58844995498657
sg19
F211.22567701339722
sg20
F175
sa(dp310
g4
I3
sg5
(lp311
sg7
F211.3383629322052
sg8
g266
sg13
g267
sg15
(lp312
(F352.4000244140625
F605.39999389648438
tp313
asg18
F211.25510692596436
sg19
F211.87764501571655
sg20
F56
sa(dp314
g4
I3
sg5
(lp315
sg7
F212.77172803878784
sg8
g266
sg13
g267
sg15
(lp316
(F1102.4000244140625
F717.79998779296875
tp317
asg18
F211.9051239490509
sg19
F213.08767986297607
sg20
F834
sa(dp318
g4
I3
sg5
(lp319
sg7
F213.35506296157837
sg8
g266
sg13
g267
sg15
(lp320
(F1059.699951171875
F217.79998779296875
tp321
asg18
F213.12180495262146
sg19
F213.86971497535706
sg20
F207
sa(dp322
g4
I3
sg5
(lp323
sg7
F214.12173891067505
sg8
g266
sg13
g267
sg15
(lp324
(F879
F567.5
tp325
asg18
F213.88846707344055
sg19
F214.52166485786438
sg20
F215
sa(dp326
g4
I3
sg5
(lp327
sg7
F215.02177596092224
sg8
g266
sg13
g267
sg15
(lp328
(F797.0999755859375
F822.5
tp329
asg18
F214.55519104003906
sg19
F215.35952091217041
sg20
F439
sa(dp330
g4
I3
sg5
(lp331
sg7
F216.23843693733215
sg8
g266
sg13
g267
sg15
(lp332
(F622.4000244140625
F629
tp333
asg18
F215.38850903511047
sg19
F216.42334604263306
sg20
F825
sa(dp334
g4
I3
sg5
(lp335
sg7
F216.97177791595459
sg8
g266
sg13
g267
sg15
(lp336
(F618.29998779296875
F375.29998779296875
tp337
asg18
F216.45518589019775
sg19
F217.1418149471283
sg20
F498
saa(dp338
g90
(lp339
(F732
F190
tp340
asg92
(lp341
(F582
F239
tp342
asg93
g94
sg95
I01
sa.