(lp1
(lp2
(dp3
S'whole_image_condition'
p4
I00
sS'planned_disp_time'
p5
F611
sS'disp_bubbles'
p6
(lp7
(F737
F350
tp8
a(F206
F425
tp9
asS'control_condition'
p10
I1
sS'chosen_bubble'
p11
(lp12
g9
asS'forced_fix_onset'
p13
F329.59056711196899
sS'saccade_offset'
p14
F330.55708909034729
sS'stim_onset'
p15
F330.21566009521484
sS'img'
p16
cnumpy.core.multiarray
scalar
p17
(cnumpy
dtype
p18
(S'S13'
I0
I1
tRp19
(I3
S'|'
NNNI13
I1
I0
tbS'image_157.bmp'
tRp20
sS'first_bubble'
p21
(F184
F795
tp22
sS'trial'
p23
I1
sS'num_bubbles'
p24
I2
sa(dp25
g4
I00
sg5
F300
sg6
(lp26
(F1185
F866
tp27
a(F164
F714
tp28
asg10
I1
sg11
(lp29
g28
asg13
F331.18091797828674
sg14
F331.72912096977234
sg15
F331.49350595474243
sg16
g20
sg21
g22
sg23
I1
sg24
I2
sa(dp30
g4
I00
sg5
F12
sg6
(lp31
(F740
F850
tp32
a(F534
F566
tp33
a(F388
F329
tp34
asg10
I1
sg11
(lp35
g33
asg13
F332.36850690841675
sg14
F332.58850407600403
sg15
F332.39621996879578
sg16
g20
sg21
g22
sg23
I1
sg24
I3
sa(dp36
g4
I00
sg5
F350
sg6
(lp37
(F671
F423
tp38
a(F723
F172
tp39
asg10
I1
sg11
(lp40
g38
asg13
F333.23664593696594
sg14
F333.77157306671143
sg15
F333.59773993492126
sg16
g20
sg21
g22
sg23
I1
sg24
I2
sa(dp41
g4
I00
sg5
F552
sg6
(lp42
(F573
F249
tp43
a(F1072
F178
tp44
asg10
I1
sg11
(lp45
g44
asg13
F334.49353504180908
sg14
F335.25249314308167
sg15
F335.0560290813446
sg16
g20
sg21
g22
sg23
I1
sg24
I2
sa(dp46
g4
I00
sg5
F299
sg6
(lp47
(F882
F865
tp48
a(F428
F648
tp49
asg10
I1
sg11
(lp50
g48
asg13
F335.88943409919739
sg14
F336.54416799545288
sg15
F336.20207095146179
sg16
g20
sg21
g22
sg23
I1
sg24
I2
sa(dp51
g4
I00
sg5
F191
sg6
(lp52
(F189
F302
tp53
a(F384
F219
tp54
a(F764
F701
tp55
a(F959
F705
tp56
a(F731
F260
tp57
asg10
I1
sg11
(lp58
g55
asg13
F337.18117713928223
sg14
F337.62306594848633
sg15
F337.38258409500122
sg16
g20
sg21
g22
sg23
I1
sg24
I5
sa(dp59
g4
I00
sg5
F184
sg6
(lp60
(F146
F550
tp61
a(F1092
F96
tp62
ag57
a(F93
F856
tp63
asg10
I1
sg11
(lp64
g57
asg13
F338.22981309890747
sg14
F338.77680492401123
sg15
F338.42425513267517
sg16
g20
sg21
g22
sg23
I1
sg24
I4
sa(dp65
g4
I00
sg5
F552
sg6
(lp66
(F1006
F618
tp67
asg10
I1
sg11
(lp68
g67
asg13
F339.50076508522034
sg14
F340.25594806671143
sg15
F340.063157081604
sg16
g20
sg21
g22
sg23
I1
sg24
I1
sa(dp69
g4
I00
sg5
F628
sg6
(lp70
g53
a(F924
F357
tp71
ag8
a(F582
F407
tp72
a(F314
F588
tp73
asg10
I1
sg11
(lp74
g71
asg13
F340.86184597015381
sg14
F341.69601511955261
sg15
F341.50072002410889
sg16
g20
sg21
g22
sg23
I1
sg24
I5
sa(dp75
g4
I00
sg5
F1083
sg6
(lp76
(F838
F160
tp77
a(F1188
F494
tp78
asg10
I1
sg11
(lp79
g77
asg13
F342.32719302177429
sg14
F343.67173910140991
sg15
F343.42452502250671
sg16
g20
sg21
g22
sg23
I1
sg24
I2
sa(dp80
g4
I00
sg5
F0
sg6
(lp81
(F1017
F388
tp82
a(F114
F651
tp83
asg10
I1
sg11
(lp84
g82
asg13
F344.3342080116272
sg14
F344.58197593688965
sg15
F344.36199998855591
sg16
g20
sg21
g22
sg23
I1
sg24
I2
sa(dp85
g4
I00
sg5
F2017
sg6
(lp86
g61
asg10
I1
sg11
(lp87
g61
asg13
F345.27879095077515
sg14
F347.81560492515564
sg15
F347.30650901794434
sg16
g20
sg21
g22
sg23
I1
sg24
I1
saa(dp88
S'right_bubble'
p89
S'no_memory_task'
p90
sS'correct'
p91
g90
sS'subject_number'
p92
S'101'
p93
sS'left_bubble'
p94
g90
sa(lp95
(dp96
g4
I00
sg5
F21
sg6
(lp97
(F1057
F236
tp98
a(F333
F354
tp99
a(F1183
F650
tp100
a(F302
F509
tp101
asg10
I1
sg11
(lp102
g100
asg13
F349.89712309837341
sg14
F350.3937349319458
sg15
F350.11922907829285
sg16
g17
(g18
(S'S13'
I0
I1
tRp103
(I3
S'|'
NNNI13
I1
I0
tbS'image_145.bmp'
tRp104
sg21
(F829
F802
tp105
sg23
I2
sg24
I4
sa(dp106
g4
I00
sg5
F306
sg6
(lp107
(F920
F113
tp108
a(F506
F188
tp109
asg10
I1
sg11
(lp110
g108
asg13
F350.98035097122192
sg14
F351.82252192497253
sg15
F351.29980897903442
sg16
g104
sg21
g105
sg23
I2
sg24
I2
sa(dp111
g4
I00
sg5
F56
sg6
(lp112
(F1133
F527
tp113
asg10
I1
sg11
(lp114
g113
asg13
F352.48730111122131
sg14
F352.88980007171631
sg15
F352.55683207511902
sg16
g104
sg21
g105
sg23
I2
sg24
I1
sa(dp115
g4
I00
sg5
F606
sg6
(lp116
(F667
F824
tp117
a(F506
F325
tp118
asg10
I1
sg11
(lp119
g117
asg13
F353.61236190795898
sg14
F354.54873514175415
sg15
F354.23045706748962
sg16
g104
sg21
g105
sg23
I2
sg24
I2
sa(dp120
g4
I00
sg5
F158
sg6
(lp121
(F1179
F846
tp122
a(F270
F863
tp123
a(F96
F377
tp124
ag118
a(F625
F504
tp125
asg10
I1
sg11
(lp126
g118
asg13
F355.21656799316406
sg14
F355.57331705093384
sg15
F355.39020204544067
sg16
g104
sg21
g105
sg23
I2
sg24
I5
sa(dp127
g4
I00
sg5
F758
sg6
(lp128
(F988
F395
tp129
a(F740
F275
tp130
asg10
I1
sg11
(lp131
g129
asg13
F356.22362399101257
sg14
F357.37111401557922
sg15
F356.99440598487854
sg16
g104
sg21
g105
sg23
I2
sg24
I2
sa(dp132
g4
I00
sg5
F158
sg6
(lp133
(F756
F501
tp134
asg10
I1
sg11
(lp135
g134
asg13
F358.00834894180298
sg14
F358.35697412490845
sg15
F358.18207907676697
sg16
g104
sg21
g105
sg23
I2
sg24
I1
sa(dp136
g4
I00
sg5
F947
sg6
(lp137
(F679
F171
tp138
a(F404
F397
tp139
a(F1025
F587
tp140
asg10
I1
sg11
(lp141
g139
asg13
F359.02923798561096
sg14
F360.70738506317139
sg15
F359.9876880645752
sg16
g104
sg21
g105
sg23
I2
sg24
I3
sa(dp142
g4
I00
sg5
F48
sg6
(lp143
(F857
F720
tp144
a(F588
F90
tp145
a(F131
F493
tp146
a(F744
F834
tp147
asg10
I1
sg11
(lp148
g144
asg13
F361.35574793815613
sg14
F361.78113698959351
sg15
F361.41836214065552
sg16
g104
sg21
g105
sg23
I2
sg24
I4
sa(dp149
g4
I00
sg5
F37
sg6
(lp150
(F305
F660
tp151
a(F789
F403
tp152
asg10
I1
sg11
(lp153
g152
asg13
F362.43912196159363
sg14
F363.02504110336304
sg15
F362.48766613006592
sg16
g104
sg21
g105
sg23
I2
sg24
I2
sa(dp154
g4
I00
sg5
F122
sg6
(lp155
(F649
F646
tp156
ag122
ag140
a(F305
F772
tp157
asg10
I1
sg11
(lp158
g156
asg13
F363.64057302474976
sg14
F364.05414009094238
sg15
F363.77247905731201
sg16
g104
sg21
g105
sg23
I2
sg24
I4
sa(dp159
g4
I00
sg5
F179
sg6
(lp160
g99
ag151
asg10
I1
sg11
(lp161
g151
asg13
F364.69614100456238
sg14
F365.14437413215637
sg15
F364.89068913459778
sg16
g104
sg21
g105
sg23
I2
sg24
I2
sa(dp162
g4
I00
sg5
F183
sg6
(lp163
g145
a(F189
F770
tp164
a(F817
F92
tp165
asg10
I1
sg11
(lp166
g145
asg13
F365.84198594093323
sg14
F366.94773101806641
sg15
F366.03641796112061
sg16
g104
sg21
g105
sg23
I2
sg24
I3
sa(dp167
g4
I00
sg5
F115
sg6
(lp168
g164
a(F950
F839
tp169
a(F822
F281
tp170
a(F993
F313
tp171
asg10
I1
sg11
(lp172
g170
asg13
F367.63376498222351
sg14
F367.97433996200562
sg15
F367.75871300697327
sg16
g104
sg21
g105
sg23
I2
sg24
I4
sa(dp173
g4
I00
sg5
F387
sg6
(lp174
(F996
F182
tp175
a(F305
F93
tp176
ag124
a(F223
F478
tp177
asg10
I1
sg11
(lp178
g175
asg13
F368.66852998733521
sg14
F369.2494421005249
sg15
F369.06440711021423
sg16
g104
sg21
g105
sg23
I2
sg24
I4
sa(dp179
g4
I00
sg5
F465
sg6
(lp180
(F756
F196
tp181
asg10
I1
sg11
(lp182
g181
asg13
F369.93242502212524
sg14
F370.57567095756531
sg15
F370.41164207458496
sg16
g104
sg21
g105
sg23
I2
sg24
I1
sa(dp183
g4
I00
sg5
F116
sg6
(lp184
(F384
F101
tp185
a(F898
F450
tp186
ag124
ag177
asg10
I1
sg11
(lp187
g177
asg13
F371.21027398109436
sg14
F371.55456399917603
sg15
F371.33523893356323
sg16
g104
sg21
g105
sg23
I2
sg24
I4
sa(dp188
g4
I00
sg5
F17
sg6
(lp189
(F299
F280
tp190
asg10
I1
sg11
(lp191
g190
asg13
F372.265949010849
sg14
F372.55461406707764
sg15
F372.2936589717865
sg16
g104
sg21
g105
sg23
I2
sg24
I1
sa(dp192
g4
I00
sg5
F98
sg6
(lp193
(F878
F616
tp194
asg10
I1
sg11
(lp195
g194
asg13
F373.14790511131287
sg14
F373.43306493759155
sg15
F373.25893402099609
sg16
g104
sg21
g105
sg23
I2
sg24
I1
sa(dp196
g4
I00
sg5
F321
sg6
(lp197
(F1116
F718
tp198
ag171
asg10
I1
sg11
(lp199
g171
asg13
F374.04370903968811
sg14
F374.82583498954773
sg15
F374.37708711624146
sg16
g104
sg21
g105
sg23
I2
sg24
I2
sa(dp200
g4
I00
sg5
F52
sg6
(lp201
(F1179
F174
tp202
a(F479
F115
tp203
ag124
a(F140
F632
tp204
a(F753
F583
tp205
asg10
I1
sg11
(lp206
g205
asg13
F375.40493106842041
sg14
F375.66710090637207
sg15
F375.46735310554504
sg16
g104
sg21
g105
sg23
I2
sg24
I5
sa(dp207
g4
I00
sg5
F43
sg6
(lp208
g185
a(F477
F426
tp209
a(F635
F742
tp210
ag124
a(F102
F850
tp211
asg10
I1
sg11
(lp212
g209
asg13
F376.30074191093445
sg14
F376.56636905670166
sg15
F376.35635995864868
sg16
g104
sg21
g105
sg23
I2
sg24
I5
sa(dp213
g4
I00
sg5
F74
sg6
(lp214
g99
a(F590
F812
tp215
a(F247
F566
tp216
ag202
a(F933
F739
tp217
asg10
I1
sg11
(lp218
g99
asg13
F377.1966381072998
sg14
F377.5140061378479
sg15
F377.27996706962585
sg16
g104
sg21
g105
sg23
I2
sg24
I5
sa(dp219
g4
I00
sg5
F344
sg6
(lp220
g211
a(F579
F358
tp221
a(F859
F164
tp222
ag101
ag124
asg10
I1
sg11
(lp223
g221
asg13
F378.16886210441589
sg14
F378.70778012275696
sg15
F378.52311992645264
sg16
g104
sg21
g105
sg23
I2
sg24
I5
sa(dp224
g4
I00
sg5
F318
sg6
(lp225
(F601
F172
tp226
ag98
a(F1026
F464
tp227
asg10
I1
sg11
(lp228
g226
asg13
F379.28697109222412
sg14
F380.0009081363678
sg15
F379.62059497833252
sg16
g104
sg21
g105
sg23
I2
sg24
I3
sa(dp229
g4
I00
sg5
F206
sg6
(lp230
(F565
F452
tp231
ag164
a(F470
F600
tp232
a(F148
F109
tp233
asg10
I1
sg11
(lp234
g231
asg13
F380.65507197380066
sg14
F381.06814312934875
sg15
F380.87041902542114
sg16
g104
sg21
g105
sg23
I2
sg24
I4
saa(dp235
g89
g90
sg91
g90
sg92
g93
sg94
g90
sa(lp236
(dp237
g4
I00
sg5
F308
sg6
(lp238
(F390
F97
tp239
a(F489
F270
tp240
a(F870
F218
tp241
asg10
I1
sg11
(lp242
g241
asg13
F387.14153909683228
sg14
F387.67880392074585
sg15
F387.4609739780426
sg16
g17
(g18
(S'S13'
I0
I1
tRp243
(I3
S'|'
NNNI13
I1
I0
tbS'image_132.bmp'
tRp244
sg21
(F641
F341
tp245
sg23
I3
sg24
I3
sa(dp246
g4
I00
sg5
F1004
sg6
(lp247
(F1068
F727
tp248
asg10
I1
sg11
(lp249
g248
asg13
F388.32204794883728
sg14
F389.5177640914917
sg15
F389.33599209785461
sg16
g244
sg21
g245
sg23
I3
sg24
I1
sa(dp250
g4
I00
sg5
F294
sg6
(lp251
(F846
F709
tp252
asg10
I1
sg11
(lp253
g252
asg13
F390.08604001998901
sg14
F390.57727408409119
sg15
F390.39163398742676
sg16
g244
sg21
g245
sg23
I3
sg24
I1
sa(dp254
g4
I00
sg5
F290
sg6
(lp255
(F1083
F851
tp256
a(F1138
F236
tp257
a(F384
F645
tp258
asg10
I1
sg11
(lp259
g258
asg13
F391.19724106788635
sg14
F391.70162105560303
sg15
F391.50292301177979
sg16
g244
sg21
g245
sg23
I3
sg24
I3
sa(dp260
g4
I00
sg5
F74
sg6
(lp261
g240
asg10
I1
sg11
(lp262
g240
asg13
F392.32921409606934
sg14
F392.63047409057617
sg15
F392.41253590583801
sg16
g244
sg21
g245
sg23
I3
sg24
I1
sa(dp263
g4
I00
sg5
F108
sg6
(lp264
(F1006
F411
tp265
a(F675
F758
tp266
a(F1186
F718
tp267
asg10
I1
sg11
(lp268
g266
asg13
F393.30144810676575
sg14
F393.59274291992188
sg15
F393.41942596435547
sg16
g244
sg21
g245
sg23
I3
sg24
I3
sa(dp269
g4
I00
sg5
F265
sg6
(lp270
(F320
F522
tp271
a(F1136
F787
tp272
a(F155
F854
tp273
asg10
I1
sg11
(lp274
g271
asg13
F394.21817111968994
sg14
F394.70241212844849
sg15
F394.49606704711914
sg16
g244
sg21
g245
sg23
I3
sg24
I3
sa(dp275
g4
I00
sg5
F420
sg6
(lp276
(F667
F155
tp277
a(F318
F328
tp278
a(F672
F855
tp279
a(F538
F349
tp280
asg10
I1
sg11
(lp281
g280
asg13
F395.41963505744934
sg14
F396.17146110534668
sg15
F395.85014200210571
sg16
g244
sg21
g245
sg23
I3
sg24
I4
sa(dp282
g4
I00
sg5
F338
sg6
(lp283
(F934
F334
tp284
a(F569
F838
tp285
a(F1094
F415
tp286
a(F1151
F647
tp287
a(F721
F555
tp288
asg10
I1
sg11
(lp289
g284
asg13
F396.8223819732666
sg14
F397.59767413139343
sg15
F397.18350005149841
sg16
g244
sg21
g245
sg23
I3
sg24
I5
sa(dp290
g4
I00
sg5
F334
sg6
(lp291
(F389
F820
tp292
a(F449
F192
tp293
a(F620
F536
tp294
asg10
I1
sg11
(lp295
g294
asg13
F398.25298500061035
sg14
F398.78333902359009
sg15
F398.60028290748596
sg16
g244
sg21
g245
sg23
I3
sg24
I3
sa(dp296
g4
I00
sg5
F134
sg6
(lp297
g257
ag239
ag272
a(F926
F680
tp298
asg10
I1
sg11
(lp299
g298
asg13
F399.41280102729797
sg14
F399.77006793022156
sg15
F399.55865502357483
sg16
g244
sg21
g245
sg23
I3
sg24
I4
sa(dp300
g4
I00
sg5
F404
sg6
(lp301
(F610
F450
tp302
asg10
I1
sg11
(lp303
g302
asg13
F400.34340000152588
sg14
F400.94536590576172
sg15
F400.76007795333862
sg16
g244
sg21
g245
sg23
I3
sg24
I1
sa(dp304
g4
I00
sg5
F142
sg6
(lp305
(F586
F758
tp306
ag256
ag278
asg10
I1
sg11
(lp307
g306
asg13
F401.62816190719604
sg14
F401.97256708145142
sg15
F401.78095412254333
sg16
g244
sg21
g245
sg23
I3
sg24
I3
sa(dp308
g4
I00
sg5
F42
sg6
(lp309
(F943
F167
tp310
a(F472
F553
tp311
ag272
asg10
I1
sg11
(lp312
g311
asg13
F402.61437106132507
sg14
F402.88093495368958
sg15
F402.66983103752136
sg16
g244
sg21
g245
sg23
I3
sg24
I3
sa(dp313
g4
I00
sg5
F107
sg6
(lp314
(F831
F445
tp315
a(F198
F481
tp316
ag293
a(F839
F135
tp317
asg10
I1
sg11
(lp318
g315
asg13
F403.57965898513794
sg14
F403.89875411987305
sg15
F403.69763207435608
sg16
g244
sg21
g245
sg23
I3
sg24
I4
sa(dp319
g4
I00
sg5
F389
sg6
(lp320
(F1073
F494
tp321
a(F537
F197
tp322
ag279
a(F327
F708
tp323
asg10
I1
sg11
(lp324
g323
asg13
F404.55194401741028
sg14
F405.32221007347107
sg15
F404.95477700233459
sg16
g244
sg21
g245
sg23
I3
sg24
I4
sa(dp325
g4
I00
sg5
F112
sg6
(lp326
g265
ag272
asg10
I1
sg11
(lp327
g265
asg13
F405.95470595359802
sg14
F406.63884711265564
sg15
F406.07977414131165
sg16
g244
sg21
g245
sg23
I3
sg24
I2
sa(dp328
g4
I00
sg5
F103
sg6
(lp329
g277
a(F925
F854
tp330
ag292
asg10
I1
sg11
(lp331
g277
asg13
F407.21169710159302
sg14
F407.67431092262268
sg15
F407.32984113693237
sg16
g244
sg21
g245
sg23
I3
sg24
I3
sa(dp332
g4
I00
sg5
F83
sg6
(lp333
(F733
F436
tp334
a(F310
F816
tp335
a(F496
F787
tp336
a(F920
F468
tp337
asg10
I1
sg11
(lp338
g336
asg13
F408.30897402763367
sg14
F408.62035298347473
sg15
F408.406170129776
sg16
g244
sg21
g245
sg23
I3
sg24
I4
sa(dp339
g4
I00
sg5
F160
sg6
(lp340
(F842
F862
tp341
a(F120
F773
tp342
ag272
ag335
a(F178
F147
tp343
asg10
I1
sg11
(lp344
g341
asg13
F409.28818011283875
sg14
F409.7541069984436
sg15
F409.46176099777222
sg16
g244
sg21
g245
sg23
I3
sg24
I5
sa(dp345
g4
I00
sg5
F201
sg6
(lp346
(F221
F305
tp347
asg10
I1
sg11
(lp348
g347
asg13
F410.44104504585266
sg14
F410.85538101196289
sg15
F410.65629601478577
sg16
g244
sg21
g245
sg23
I3
sg24
I1
sa(dp349
g4
I00
sg5
F647
sg6
(lp350
g316
ag292
asg10
I1
sg11
(lp351
g292
asg13
F411.45490097999573
sg14
F412.3314049243927
sg15
F412.11463594436646
sg16
g244
sg21
g245
sg23
I3
sg24
I2
sa(dp352
g4
I00
sg5
F34
sg6
(lp353
g343
ag272
a(F1016
F611
tp354
a(F342
F162
tp355
asg10
I1
sg11
(lp356
g354
asg13
F412.98969292640686
sg14
F413.23424601554871
sg15
F413.03841495513916
sg16
g244
sg21
g245
sg23
I3
sg24
I4
sa(dp357
g4
I00
sg5
F112
sg6
(lp358
(F645
F633
tp359
asg10
I1
sg11
(lp360
g359
asg13
F413.92723107337952
sg14
F414.23781108856201
sg15
F414.05220794677734
sg16
g244
sg21
g245
sg23
I3
sg24
I1
saa(dp361
g89
g90
sg91
g90
sg92
g93
sg94
g90
sa(lp362
(dp363
g4
I00
sg5
F22
sg6
(lp364
(F478
F260
tp365
a(F853
F323
tp366
asg10
I1
sg11
(lp367
g366
asg13
F415.92044901847839
sg14
F416.34139609336853
sg15
F416.12878513336182
sg16
g17
(g18
(S'S13'
I0
I1
tRp368
(I3
S'|'
NNNI13
I1
I0
tbS'image_142.bmp'
tRp369
sg21
(F1129
F286
tp370
sg23
I4
sg24
I2
sa(dp371
g4
I00
sg5
F429
sg6
(lp372
(F1094
F211
tp373
a(F1003
F715
tp374
asg10
I1
sg11
(lp375
g373
asg13
F416.97598505020142
sg14
F417.58738994598389
sg15
F417.42061710357666
sg16
g369
sg21
g370
sg23
I4
sg24
I2
sa(dp376
g4
I00
sg5
F32
sg6
(lp377
(F290
F427
tp378
asg10
I1
sg11
(lp379
g378
asg13
F418.17739510536194
sg14
F418.58440494537354
sg15
F418.21914601325989
sg16
g369
sg21
g370
sg23
I4
sg24
I1
sa(dp380
g4
I00
sg5
F224
sg6
(lp381
(F1011
F336
tp382
a(F1077
F656
tp383
a(F918
F158
tp384
a(F173
F642
tp385
asg10
I1
sg11
(lp386
g382
asg13
F419.12880396842957
sg14
F419.56704092025757
sg15
F419.36497497558594
sg16
g369
sg21
g370
sg23
I4
sg24
I4
sa(dp387
g4
I00
sg5
F410
sg6
(lp388
(F488
F455
tp389
a(F717
F636
tp390
ag384
asg10
I1
sg11
(lp391
g390
asg13
F420.26080107688904
sg14
F420.86688995361328
sg15
F420.68449807167053
sg16
g369
sg21
g370
sg23
I4
sg24
I3
sa(dp392
g4
I00
sg5
F801
sg6
(lp393
(F593
F823
tp394
ag384
a(F282
F303
tp395
a(F293
F739
tp396
asg10
I1
sg11
(lp397
g394
asg13
F421.5178050994873
sg14
F422.55347013473511
sg15
F422.33036208152771
sg16
g369
sg21
g370
sg23
I4
sg24
I4
sa(dp398
g4
I00
sg5
F32
sg6
(lp399
(F820
F99
tp400
asg10
I1
sg11
(lp401
g400
asg13
F423.19847893714905
sg14
F423.68505907058716
sg15
F423.24008202552795
sg16
g369
sg21
g370
sg23
I4
sg24
I1
sa(dp402
g4
I00
sg5
F23
sg6
(lp403
(F1161
F644
tp404
a(F560
F425
tp405
a(F163
F495
tp406
a(F732
F486
tp407
asg10
I1
sg11
(lp408
g407
asg13
F424.32346892356873
sg14
F424.54274797439575
sg15
F424.35826706886292
sg16
g369
sg21
g370
sg23
I4
sg24
I4
sa(dp409
g4
I00
sg5
F315
sg6
(lp410
(F300
F835
tp411
a(F1173
F484
tp412
a(F649
F769
tp413
a(F185
F255
tp414
a(F1000
F108
tp415
asg10
I1
sg11
(lp416
g413
asg13
F425.12217998504639
sg14
F425.64356303215027
sg15
F425.44854211807251
sg16
g369
sg21
g370
sg23
I4
sg24
I5
sa(dp417
g4
I00
sg5
F1823
sg6
(lp418
(F836
F630
tp419
a(F167
F719
tp420
a(F664
F560
tp421
a(F458
F697
tp422
a(F765
F279
tp423
asg10
I1
sg11
(lp424
g421
asg13
F426.29577612876892
sg14
F428.14244413375854
sg15
F428.12924599647522
sg16
g369
sg21
g370
sg23
I4
sg24
I5
sa(dp425
g4
I00
sg5
F41
sg6
(lp426
(F255
F619
tp427
a(F853
F450
tp428
a(F496
F181
tp429
a(F218
F838
tp430
asg10
I1
sg11
(lp431
g428
asg13
F428.78203201293945
sg14
F429.10295295715332
sg15
F428.83752703666687
sg16
g369
sg21
g370
sg23
I4
sg24
I4
sa(dp432
g4
I00
sg5
F40
sg6
(lp433
(F212
F427
tp434
ag427
a(F626
F662
tp435
ag430
asg10
I1
sg11
(lp436
g435
asg13
F429.69867992401123
sg14
F429.94991493225098
sg15
F429.75440096855164
sg16
g369
sg21
g370
sg23
I4
sg24
I4
sa(dp437
g4
I00
sg5
F155
sg6
(lp438
g420
a(F902
F564
tp439
a(F461
F93
tp440
a(F547
F513
tp441
ag383
asg10
I1
sg11
(lp442
g441
asg13
F430.53205895423889
sg14
F430.90951299667358
sg15
F430.69870114326477
sg16
g369
sg21
g370
sg23
I4
sg24
I5
sa(dp443
g4
I00
sg5
F86
sg6
(lp444
(F583
F308
tp445
ag419
ag420
a(F238
F535
tp446
asg10
I1
sg11
(lp447
g419
asg13
F431.57377505302429
sg14
F431.83413910865784
sg15
F431.6710410118103
sg16
g369
sg21
g370
sg23
I4
sg24
I4
sa(dp448
g4
I00
sg5
F150
sg6
(lp449
g446
asg10
I1
sg11
(lp450
g446
asg13
F432.52521395683289
sg14
F433.17455506324768
sg15
F432.68487191200256
sg16
g369
sg21
g370
sg23
I4
sg24
I1
sa(dp451
g4
I00
sg5
F19
sg6
(lp452
(F389
F313
tp453
a(F635
F394
tp454
a(F1102
F358
tp455
ag374
asg10
I1
sg11
(lp456
g454
asg13
F433.85162210464478
sg14
F434.06611514091492
sg15
F433.87938404083252
sg16
g369
sg21
g370
sg23
I4
sg24
I4
sa(dp457
g4
I00
sg5
F239
sg6
(lp458
(F779
F837
tp459
a(F414
F165
tp460
asg10
I1
sg11
(lp461
g459
asg13
F434.65032505989075
sg14
F435.14578008651733
sg15
F434.9004020690918
sg16
g369
sg21
g370
sg23
I4
sg24
I2
sa(dp462
g4
I00
sg5
F411
sg6
(lp463
(F974
F520
tp464
a(F789
F539
tp465
ag427
a(F538
F668
tp466
asg10
I1
sg11
(lp467
g465
asg13
F435.75453996658325
sg14
F436.51271104812622
sg15
F436.17820310592651
sg16
g369
sg21
g370
sg23
I4
sg24
I4
sa(dp468
g4
I00
sg5
F586
sg6
(lp469
(F978
F613
tp470
ag406
asg10
I1
sg11
(lp471
g470
asg13
F437.17129993438721
sg14
F437.98196697235107
sg15
F437.7684690952301
sg16
g369
sg21
g370
sg23
I4
sg24
I2
sa(dp472
g4
I00
sg5
F224
sg6
(lp473
g455
a(F385
F847
tp474
a(F1180
F866
tp475
a(F1167
F179
tp476
asg10
I1
sg11
(lp477
g455
asg13
F438.62973213195801
sg14
F439.13776803016663
sg15
F438.86580991744995
sg16
g369
sg21
g370
sg23
I4
sg24
I4
saa(dp478
g89
g90
sg91
g90
sg92
g93
sg94
g90
sa(lp479
(dp480
g4
I00
sg5
F260
sg6
(lp481
(F1176
F332
tp482
a(F408
F808
tp483
asg10
I1
sg11
(lp484
g482
asg13
F440.99083805084229
sg14
F441.56667709350586
sg15
F441.26173996925354
sg16
g17
(g18
(S'S13'
I0
I1
tRp485
(I3
S'|'
NNNI13
I1
I0
tbS'image_166.bmp'
tRp486
sg21
(F769
F488
tp487
sg23
I5
sg24
I2
sa(dp488
g4
I00
sg5
F76
sg6
(lp489
(F633
F182
tp490
a(F1077
F849
tp491
asg10
I1
sg11
(lp492
g490
asg13
F442.1922550201416
sg14
F442.55396795272827
sg15
F442.28262710571289
sg16
g486
sg21
g487
sg23
I5
sg24
I2
sa(dp493
g4
I00
sg5
F380
sg6
(lp494
(F773
F689
tp495
a(F667
F423
tp496
a(F340
F418
tp497
a(F687
F846
tp498
asg10
I1
sg11
(lp499
g496
asg13
F443.16451406478882
sg14
F443.84812903404236
sg15
F443.56729602813721
sg16
g486
sg21
g487
sg23
I5
sg24
I4
sa(dp500
g4
I00
sg5
F114
sg6
(lp501
(F435
F613
tp502
a(F997
F350
tp503
a(F1189
F108
tp504
ag498
a(F1050
F726
tp505
asg10
I1
sg11
(lp506
g498
asg13
F444.56045293807983
sg14
F445.03595805168152
sg15
F444.68545198440552
sg16
g486
sg21
g487
sg23
I5
sg24
I5
sa(dp507
g4
I00
sg5
F25
sg6
(lp508
(F921
F484
tp509
asg10
I1
sg11
(lp510
g509
asg13
F445.67159008979797
sg14
F445.94017505645752
sg15
F445.70629096031189
sg16
g486
sg21
g487
sg23
I5
sg24
I1
sa(dp511
g4
I00
sg5
F249
sg6
(lp512
(F858
F681
tp513
a(F622
F785
tp514
a(F328
F129
tp515
a(F737
F570
tp516
asg10
I1
sg11
(lp517
g516
asg13
F446.6091160774231
sg14
F447.04722690582275
sg15
F446.87312698364258
sg16
g486
sg21
g487
sg23
I5
sg24
I4
sa(dp518
g4
I00
sg5
F427
sg6
(lp519
(F342
F227
tp520
asg10
I1
sg11
(lp521
g520
asg13
F447.7619309425354
sg14
F448.55871391296387
sg15
F448.1994891166687
sg16
g486
sg21
g487
sg23
I5
sg24
I1
sa(dp522
g4
I00
sg5
F1
sg6
(lp523
(F996
F197
tp524
ag513
a(F1059
F557
tp525
a(F699
F109
tp526
asg10
I1
sg11
(lp527
g525
asg13
F449.22033405303955
sg14
F449.56415009498596
sg15
F449.24813604354858
sg16
g486
sg21
g487
sg23
I5
sg24
I4
sa(dp528
g4
I00
sg5
F95
sg6
(lp529
(F1188
F850
tp530
asg10
I1
sg11
(lp531
g530
asg13
F450.25509810447693
sg14
F450.5507640838623
sg15
F450.36615395545959
sg16
g486
sg21
g487
sg23
I5
sg24
I1
sa(dp532
g4
I00
sg5
F343
sg6
(lp533
g502
a(F948
F716
tp534
a(F929
F390
tp535
ag504
asg10
I1
sg11
(lp536
g534
asg13
F451.25509309768677
sg14
F451.79451203346252
sg15
F451.60923600196838
sg16
g486
sg21
g487
sg23
I5
sg24
I4
sa(dp537
g4
I00
sg5
F512
sg6
(lp538
(F945
F273
tp539
a(F731
F758
tp540
a(F840
F530
tp541
a(F170
F700
tp542
asg10
I1
sg11
(lp543
g541
asg13
F452.4565589427948
sg14
F453.17990303039551
sg15
F452.98443698883057
sg16
g486
sg21
g487
sg23
I5
sg24
I4
sa(dp544
g4
I00
sg5
F52
sg6
(lp545
(F311
F581
tp546
a(F983
F614
tp547
a(F409
F163
tp548
a(F1064
F433
tp549
asg10
I1
sg11
(lp550
g546
asg13
F453.83165812492371
sg14
F454.25588297843933
sg15
F453.89406895637512
sg16
g486
sg21
g487
sg23
I5
sg24
I4
sa(dp551
g4
I00
sg5
F308
sg6
(lp552
(F624
F519
tp553
a(F285
F832
tp554
a(F799
F93
tp555
ag513
a(F262
F190
tp556
asg10
I1
sg11
(lp557
g553
asg13
F454.90107703208923
sg14
F455.38659191131592
sg15
F455.22049307823181
sg16
g486
sg21
g487
sg23
I5
sg24
I5
sa(dp558
g4
I00
sg5
F416
sg6
(lp559
(F115
F120
tp560
asg10
I1
sg11
(lp561
g560
asg13
F456.05390095710754
sg14
F456.92397713661194
sg15
F456.48453092575073
sg16
g486
sg21
g487
sg23
I5
sg24
I1
sa(dp562
g4
I00
sg5
F1821
sg6
(lp563
(F1139
F783
tp564
a(F543
F846
tp565
ag554
a(F1065
F142
tp566
ag513
asg10
I1
sg11
(lp567
g513
asg13
F457.58867812156677
sg14
F459.94444799423218
sg15
F459.42223691940308
sg16
g486
sg21
g487
sg23
I5
sg24
I5
sa(dp568
g4
I00
sg5
F793
sg6
(lp569
(F173
F543
tp570
a(F1006
F487
tp571
a(F559
F158
tp572
a(F224
F267
tp573
asg10
I1
sg11
(lp574
g571
asg13
F460.64442205429077
sg14
F461.66034913063049
sg15
F461.44999814033508
sg16
g486
sg21
g487
sg23
I5
sg24
I4
sa(dp575
g4
I00
sg5
F224
sg6
(lp576
g515
a(F268
F699
tp577
a(F1161
F527
tp578
ag540
a(F833
F234
tp579
asg10
I1
sg11
(lp580
g579
asg13
F462.26945400238037
sg14
F462.75632810592651
sg15
F462.5056459903717
sg16
g486
sg21
g487
sg23
I5
sg24
I5
saa(dp581
g89
g90
sg91
g90
sg92
g93
sg94
g90
sa(lp582
(dp583
g4
I00
sg5
F481
sg6
(lp584
(F832
F115
tp585
a(F1097
F517
tp586
asg10
I1
sg11
(lp587
g586
asg13
F465.03350400924683
sg14
F465.73295593261719
sg15
F465.52653098106384
sg16
g17
(g18
(S'S13'
I0
I1
tRp588
(I3
S'|'
NNNI13
I1
I0
tbS'image_146.bmp'
tRp589
sg21
(F907
F329
tp590
sg23
I6
sg24
I2
sa(dp591
g4
I00
sg5
F167
sg6
(lp592
(F331
F284
tp593
a(F960
F229
tp594
a(F366
F572
tp595
a(F174
F287
tp596
a(F511
F344
tp597
asg10
I1
sg11
(lp598
g595
asg13
F466.32521200180054
sg14
F466.69880104064941
sg15
F466.50569200515747
sg16
g589
sg21
g590
sg23
I6
sg24
I5
sa(dp599
g4
I00
sg5
F683
sg6
(lp600
(F752
F561
tp601
a(F510
F98
tp602
asg10
I1
sg11
(lp603
g601
asg13
F467.4779839515686
sg14
F468.35525512695312
sg15
F468.17245006561279
sg16
g589
sg21
g590
sg23
I6
sg24
I2
sa(dp604
g4
I00
sg5
F441
sg6
(lp605
(F1143
F265
tp606
a(F677
F293
tp607
a(F215
F815
tp608
a(F1007
F807
tp609
asg10
I1
sg11
(lp610
g608
asg13
F468.9850480556488
sg14
F469.83587193489075
sg15
F469.43638491630554
sg16
g589
sg21
g590
sg23
I6
sg24
I4
sa(dp611
g4
I00
sg5
F21
sg6
(lp612
g597
a(F910
F816
tp613
a(F281
F177
tp614
a(F256
F632
tp615
a(F743
F167
tp616
asg10
I1
sg11
(lp617
g615
asg13
F470.38778400421143
sg14
F470.58362698554993
sg15
F470.42250895500183
sg16
g589
sg21
g590
sg23
I6
sg24
I5
sa(dp618
g4
I00
sg5
F126
sg6
(lp619
(F680
F864
tp620
a(F728
F463
tp621
asg10
I1
sg11
(lp622
g621
asg13
F471.2419900894165
sg14
F471.52791213989258
sg15
F471.3808650970459
sg16
g589
sg21
g590
sg23
I6
sg24
I2
sa(dp623
g4
I00
sg5
F5
sg6
(lp624
(F624
F601
tp625
asg10
I1
sg11
(lp626
g625
asg13
F472.16563510894775
sg14
F472.39950299263
sg15
F472.19339513778687
sg16
g589
sg21
g590
sg23
I6
sg24
I1
sa(dp627
g4
I00
sg5
F583
sg6
(lp628
(F843
F540
tp629
a(F172
F462
tp630
ag602
a(F987
F342
tp631
asg10
I1
sg11
(lp632
g629
asg13
F473.01987791061401
sg14
F473.79828310012817
sg15
F473.61725306510925
sg16
g589
sg21
g590
sg23
I6
sg24
I4
sa(dp633
g4
I00
sg5
F28
sg6
(lp634
(F1146
F632
tp635
a(F791
F384
tp636
a(F426
F468
tp637
a(F630
F228
tp638
asg10
I1
sg11
(lp639
g636
asg13
F474.45739102363586
sg14
F475.08598804473877
sg15
F474.49912095069885
sg16
g589
sg21
g590
sg23
I6
sg24
I4
sa(dp640
g4
I00
sg5
F851
sg6
(lp641
g602
ag616
asg10
I1
sg11
(lp642
g616
asg13
F475.74917793273926
sg14
F477.08240914344788
sg15
F476.61027908325195
sg16
g589
sg21
g590
sg23
I6
sg24
I2
sa(dp643
g4
I00
sg5
F458
sg6
(lp644
(F566
F797
tp645
a(F478
F211
tp646
asg10
I1
sg11
(lp647
g645
asg13
F477.6867880821228
sg14
F478.41258692741394
sg15
F478.15905594825745
sg16
g589
sg21
g590
sg23
I6
sg24
I2
sa(dp648
g4
I00
sg5
F1
sg6
(lp649
(F840
F864
tp650
a(F114
F854
tp651
ag637
asg10
I1
sg11
(lp652
g637
asg13
F479.04791402816772
sg14
F479.48047304153442
sg15
F479.07559609413147
sg16
g589
sg21
g590
sg23
I6
sg24
I3
sa(dp653
g4
I00
sg5
F61
sg6
(lp654
(F90
F294
tp655
a(F607
F701
tp656
ag614
a(F295
F851
tp657
asg10
I1
sg11
(lp658
g656
asg13
F480.19379997253418
sg14
F480.60400891304016
sg15
F480.27020192146301
sg16
g589
sg21
g590
sg23
I6
sg24
I4
sa(dp659
g4
I00
sg5
F65
sg6
(lp660
(F231
F516
tp661
asg10
I1
sg11
(lp662
g661
asg13
F481.22847890853882
sg14
F481.87615299224854
sg15
F481.3048460483551
sg16
g589
sg21
g590
sg23
I6
sg24
I1
sa(dp663
g4
I00
sg5
F660
sg6
(lp664
(F574
F286
tp665
ag614
a(F750
F318
tp666
a(F151
F365
tp667
a(F931
F410
tp668
asg10
I1
sg11
(lp669
g666
asg13
F482.51333999633789
sg14
F483.65377902984619
sg15
F483.18695712089539
sg16
g589
sg21
g590
sg23
I6
sg24
I5
sa(dp670
g4
I00
sg5
F246
sg6
(lp671
g646
a(F448
F571
tp672
asg10
I1
sg11
(lp673
g672
asg13
F484.26331305503845
sg14
F484.75579905509949
sg15
F484.52029013633728
sg16
g589
sg21
g590
sg23
I6
sg24
I2
sa(dp674
g4
I00
sg5
F306
sg6
(lp675
g665
a(F156
F203
tp676
a(F1097
F750
tp677
asg10
I1
sg11
(lp678
g677
asg13
F485.35367012023926
sg14
F486.26527214050293
sg15
F485.67315602302551
sg16
g589
sg21
g590
sg23
I6
sg24
I3
sa(dp679
g4
I00
sg5
F1223
sg6
(lp680
(F1147
F440
tp681
asg10
I1
sg11
(lp682
g681
asg13
F486.8398129940033
sg14
F488.28566098213196
sg15
F488.07609701156616
sg16
g589
sg21
g590
sg23
I6
sg24
I1
saa(dp683
g89
g90
sg91
g90
sg92
g93
sg94
g90
sa(lp684
(dp685
g4
I00
sg5
F400
sg6
(lp686
(F250
F361
tp687
a(F824
F806
tp688
asg10
I1
sg11
(lp689
g687
asg13
F489.85385704040527
sg14
F490.66718292236328
sg15
F490.26367902755737
sg16
g17
(g18
(S'S13'
I0
I1
tRp690
(I3
S'|'
NNNI13
I1
I0
tbS'image_161.bmp'
tRp691
sg21
(F887
F584
tp692
sg23
I7
sg24
I2
sa(dp693
g4
I00
sg5
F71
sg6
(lp694
(F683
F251
tp695
a(F434
F732
tp696
a(F1179
F389
tp697
a(F232
F570
tp698
asg10
I1
sg11
(lp699
g695
asg13
F491.27747797966003
sg14
F491.54609704017639
sg15
F491.36079001426697
sg16
g691
sg21
g692
sg23
I7
sg24
I4
sa(dp700
g4
I00
sg5
F238
sg6
(lp701
(F295
F178
tp702
a(F730
F412
tp703
a(F95
F183
tp704
a(F348
F819
tp705
asg10
I1
sg11
(lp706
g703
asg13
F492.1247570514679
sg14
F492.37640309333801
sg15
F492.3747661113739
sg16
g691
sg21
g692
sg23
I7
sg24
I4
sa(dp707
g4
I00
sg5
F1444
sg6
(lp708
(F367
F368
tp709
ag696
a(F132
F541
tp710
a(F431
F117
tp711
a(F556
F317
tp712
asg10
I1
sg11
(lp713
g712
asg13
F493.06930994987488
sg14
F494.72806191444397
sg15
F494.52762007713318
sg16
g691
sg21
g692
sg23
I7
sg24
I5
sa(dp714
g4
I00
sg5
F150
sg6
(lp715
(F1011
F367
tp716
asg10
I1
sg11
(lp717
g716
asg13
F495.42349910736084
sg14
F495.76792001724243
sg15
F495.58323502540588
sg16
g691
sg21
g692
sg23
I7
sg24
I1
sa(dp718
g4
I00
sg5
F624
sg6
(lp719
(F1104
F774
tp720
a(F530
F136
tp721
ag697
asg10
I1
sg11
(lp722
g721
asg13
F496.39574909210205
sg14
F497.23449897766113
sg15
F497.03468108177185
sg16
g691
sg21
g692
sg23
I7
sg24
I3
sa(dp723
g4
I00
sg5
F331
sg6
(lp724
(F332
F439
tp725
a(F812
F420
tp726
a(F996
F575
tp727
ag688
asg10
I1
sg11
(lp728
g726
asg13
F497.85419797897339
sg14
F498.47558903694153
sg15
F498.19442892074585
sg16
g691
sg21
g692
sg23
I7
sg24
I4
sa(dp729
g4
I00
sg5
F184
sg6
(lp730
(F173
F196
tp731
a(F506
F509
tp732
ag697
asg10
I1
sg11
(lp733
g732
asg13
F499.17370390892029
sg14
F499.53019595146179
sg15
F499.36808013916016
sg16
g691
sg21
g692
sg23
I7
sg24
I3
sa(dp734
g4
I00
sg5
F186
sg6
(lp735
(F288
F97
tp736
a(F340
F518
tp737
asg10
I1
sg11
(lp738
g737
asg13
F500.09039807319641
sg14
F500.5489559173584
sg15
F500.29193711280823
sg16
g691
sg21
g692
sg23
I7
sg24
I2
sa(dp739
g4
I00
sg5
F40
sg6
(lp740
(F1017
F781
tp741
asg10
I1
sg11
(lp742
g741
asg13
F501.22924900054932
sg14
F501.50170993804932
sg15
F501.28485202789307
sg16
g691
sg21
g692
sg23
I7
sg24
I1
sa(dp743
g4
I00
sg5
F217
sg6
(lp744
(F946
F433
tp745
a(F686
F483
tp746
a(F134
F356
tp747
a(F803
F587
tp748
a(F1179
F818
tp749
asg10
I1
sg11
(lp750
g748
asg13
F502.13901400566101
sg14
F502.44805097579956
sg15
F502.36826610565186
sg16
g691
sg21
g692
sg23
I7
sg24
I5
sa(dp751
g4
I00
sg5
F284
sg6
(lp752
(F1103
F354
tp753
ag709
a(F124
F105
tp754
ag746
a(F1156
F644
tp755
asg10
I1
sg11
(lp756
g746
asg13
F503.11129808425903
sg14
F503.5843141078949
sg15
F503.41006708145142
sg16
g691
sg21
g692
sg23
I7
sg24
I5
sa(dp757
g4
I00
sg5
F157
sg6
(lp758
g696
a(F246
F483
tp759
asg10
I1
sg11
(lp760
g696
asg13
F504.34055995941162
sg14
F504.69968414306641
sg15
F504.5071849822998
sg16
g691
sg21
g692
sg23
I7
sg24
I2
sa(dp761
g4
I00
sg5
F641
sg6
(lp762
g759
a(F734
F783
tp763
ag727
a(F448
F374
tp764
ag753
asg10
I1
sg11
(lp765
g763
asg13
F505.39611005783081
sg14
F506.24388194084167
sg15
F506.0489239692688
sg16
g691
sg21
g692
sg23
I7
sg24
I5
sa(dp766
g4
I00
sg5
F779
sg6
(lp767
(F297
F638
tp768
a(F121
F703
tp769
asg10
I1
sg11
(lp770
g768
asg13
F506.80585408210754
sg14
F507.81171894073486
sg15
F507.59759902954102
sg16
g691
sg21
g692
sg23
I7
sg24
I2
sa(dp771
g4
I00
sg5
F171
sg6
(lp772
(F660
F684
tp773
a(F116
F273
tp774
ag753
a(F998
F199
tp775
a(F730
F867
tp776
asg10
I1
sg11
(lp777
g773
asg13
F508.51425790786743
sg14
F508.84038996696472
sg15
F508.69477796554565
sg16
g691
sg21
g692
sg23
I7
sg24
I5
sa(dp778
g4
I00
sg5
F238
sg6
(lp779
(F781
F504
tp780
asg10
I1
sg11
(lp781
g780
asg13
F509.58373403549194
sg14
F509.85768604278564
sg15
F509.83378601074219
sg16
g691
sg21
g692
sg23
I7
sg24
I1
saa(dp782
g89
g90
sg91
g90
sg92
g93
sg94
g90
sa(lp783
(dp784
g4
I00
sg5
F1212
sg6
(lp785
(F645
F610
tp786
a(F763
F391
tp787
a(F379
F552
tp788
a(F1000
F856
tp789
a(F1014
F107
tp790
asg10
I1
sg11
(lp791
g787
asg13
F511.1810839176178
sg14
F512.59317207336426
sg15
F512.40335297584534
sg16
g17
(g18
(S'S13'
I0
I1
tRp792
(I3
S'|'
NNNI13
I1
I0
tbS'image_172.bmp'
tRp793
sg21
(F400
F91
tp794
sg23
I8
sg24
I5
sa(dp795
g4
I00
sg5
F357
sg6
(lp796
(F761
F136
tp797
a(F592
F850
tp798
a(F423
F776
tp799
asg10
I1
sg11
(lp800
g798
asg13
F513.19497203826904
sg14
F513.73872399330139
sg15
F513.56314492225647
sg16
g793
sg21
g794
sg23
I8
sg24
I3
sa(dp801
g4
I00
sg5
F274
sg6
(lp802
(F996
F672
tp803
a(F836
F105
tp804
asg10
I1
sg11
(lp805
g804
asg13
F514.25760793685913
sg14
F514.93072605133057
sg15
F514.5422089099884
sg16
g793
sg21
g794
sg23
I8
sg24
I2
sa(dp806
g4
I00
sg5
F871
sg6
(lp807
(F721
F524
tp808
asg10
I1
sg11
(lp809
g808
asg13
F515.54231405258179
sg14
F516.63200902938843
sg15
F516.42425203323364
sg16
g793
sg21
g794
sg23
I8
sg24
I1
sa(dp810
g4
I00
sg5
F13
sg6
(lp811
(F894
F341
tp812
asg10
I1
sg11
(lp813
g812
asg13
F517.25079011917114
sg14
F517.5171000957489
sg15
F517.27846002578735
sg16
g793
sg21
g794
sg23
I8
sg24
I1
sa(dp814
g4
I00
sg5
F707
sg6
(lp815
(F460
F611
tp816
a(F759
F784
tp817
a(F322
F93
tp818
asg10
I1
sg11
(lp819
g816
asg13
F518.250736951828
sg14
F519.17523193359375
sg15
F518.97305107116699
sg16
g793
sg21
g794
sg23
I8
sg24
I3
sa(dp820
g4
I00
sg5
F216
sg6
(lp821
(F677
F708
tp822
a(F271
F560
tp823
ag818
a(F188
F727
tp824
a(F350
F420
tp825
asg10
I1
sg11
(lp826
g825
asg13
F519.79940795898438
sg14
F520.30894303321838
sg15
F520.02868890762329
sg16
g793
sg21
g794
sg23
I8
sg24
I5
sa(dp827
g4
I00
sg5
F110
sg6
(lp828
(F878
F423
tp829
a(F1069
F168
tp830
a(F948
F763
tp831
asg10
I1
sg11
(lp832
g829
asg13
F520.89675307273865
sg14
F521.21943593025208
sg15
F521.02178001403809
sg16
g793
sg21
g794
sg23
I8
sg24
I3
sa(dp833
g4
I00
sg5
F50
sg6
(lp834
(F466
F493
tp835
a(F617
F366
tp836
asg10
I1
sg11
(lp837
g835
asg13
F521.9106240272522
sg14
F522.14382410049438
sg15
F521.9731650352478
sg16
g793
sg21
g794
sg23
I8
sg24
I2
sa(dp838
g4
I00
sg5
F390
sg6
(lp839
g823
a(F1115
F253
tp840
asg10
I1
sg11
(lp841
g840
asg13
F522.7162230014801
sg14
F523.33293509483337
sg15
F523.11910510063171
sg16
g793
sg21
g794
sg23
I8
sg24
I2
sa(dp842
g4
I00
sg5
F140
sg6
(lp843
(F686
F318
tp844
a(F91
F436
tp845
a(F818
F523
tp846
ag786
asg10
I1
sg11
(lp847
g846
asg13
F523.93162512779236
sg14
F524.32010006904602
sg15
F524.08427810668945
sg16
g793
sg21
g794
sg23
I8
sg24
I4
sa(dp848
g4
I00
sg5
F328
sg6
(lp849
(F571
F190
tp850
a(F271
F381
tp851
asg10
I1
sg11
(lp852
g851
asg13
F525.0080099105835
sg14
F525.75502705574036
sg15
F525.34826707839966
sg16
g793
sg21
g794
sg23
I8
sg24
I2
sa(dp853
g4
I00
sg5
F66
sg6
(lp854
(F923
F562
tp855
a(F552
F416
tp856
a(F223
F834
tp857
a(F1177
F787
tp858
ag786
asg10
I1
sg11
(lp859
g856
asg13
F526.40385508537292
sg14
F526.67520403862
sg15
F526.48017907142639
sg16
g793
sg21
g794
sg23
I8
sg24
I5
sa(dp860
g4
I00
sg5
F61
sg6
(lp861
g858
asg10
I1
sg11
(lp862
g858
asg13
F527.31360411643982
sg14
F527.78125596046448
sg15
F527.39010691642761
sg16
g793
sg21
g794
sg23
I8
sg24
I1
sa(dp863
g4
I00
sg5
F21
sg6
(lp864
(F1154
F535
tp865
ag836
a(F577
F665
tp866
a(F93
F683
tp867
a(F178
F99
tp868
asg10
I1
sg11
(lp869
g836
asg13
F528.49424290657043
sg14
F529.11659097671509
sg15
F528.52891206741333
sg16
g793
sg21
g794
sg23
I8
sg24
I5
sa(dp870
g4
I00
sg5
F51
sg6
(lp871
g788
a(F570
F520
tp872
a(F465
F867
tp873
a(F978
F480
tp874
a(F617
F99
tp875
asg10
I1
sg11
(lp876
g872
asg13
F529.71652913093567
sg14
F529.9986400604248
sg15
F529.77892994880676
sg16
g793
sg21
g794
sg23
I8
sg24
I5
sa(dp877
g4
I00
sg5
F242
sg6
(lp878
(F1078
F675
tp879
asg10
I1
sg11
(lp880
g879
asg13
F530.62623000144958
sg14
F531.32206511497498
sg15
F530.88327407836914
sg16
g793
sg21
g794
sg23
I8
sg24
I1
sa(dp881
g4
I00
sg5
F295
sg6
(lp882
(F457
F331
tp883
asg10
I1
sg11
(lp884
g883
asg13
F531.95964193344116
sg14
F532.81487107276917
sg15
F532.26517701148987
sg16
g793
sg21
g794
sg23
I8
sg24
I1
sa(dp885
g4
I00
sg5
F31
sg6
(lp886
(F542
F755
tp887
ag823
ag824
ag786
a(F974
F358
tp888
asg10
I1
sg11
(lp889
g786
asg13
F533.50835204124451
sg14
F533.95166301727295
sg15
F533.54997491836548
sg16
g793
sg21
g794
sg23
I8
sg24
I5
sa(dp890
g4
I00
sg5
F561
sg6
(lp891
g788
a(F165
F182
tp892
a(F766
F237
tp893
a(F829
F614
tp894
ag850
asg10
I1
sg11
(lp895
g788
asg13
F534.59170508384705
sg14
F535.34985709190369
sg15
F535.16814112663269
sg16
g793
sg21
g794
sg23
I8
sg24
I5
sa(dp896
g4
I00
sg5
F424
sg6
(lp897
(F686
F173
tp898
a(F545
F330
tp899
a(F882
F828
tp900
ag865
a(F165
F486
tp901
asg10
I1
sg11
(lp902
g899
asg13
F535.98065996170044
sg14
F536.61793613433838
sg15
F536.41822195053101
sg16
g793
sg21
g794
sg23
I8
sg24
I5
saa(dp903
g89
g90
sg91
g90
sg92
g93
sg94
g90
sa(lp904
(dp905
g4
I00
sg5
F57
sg6
(lp906
(F523
F560
tp907
a(F727
F350
tp908
asg10
I1
sg11
(lp909
g907
asg13
F538.20985412597656
sg14
F538.63988614082336
sg15
F538.44612812995911
sg16
g17
(g18
(S'S13'
I0
I1
tRp910
(I3
S'|'
NNNI13
I1
I0
tbS'image_185.bmp'
tRp911
sg21
(F137
F769
tp912
sg23
I9
sg24
I2
sa(dp913
g4
I00
sg5
F45
sg6
(lp914
(F1171
F827
tp915
a(F162
F103
tp916
a(F567
F321
tp917
a(F683
F619
tp918
a(F783
F223
tp919
asg10
I1
sg11
(lp920
g918
asg13
F539.30023312568665
sg14
F539.56955504417419
sg15
F539.35576105117798
sg16
g911
sg21
g912
sg23
I9
sg24
I5
sa(dp921
g4
I00
sg5
F167
sg6
(lp922
(F708
F247
tp923
a(F196
F250
tp924
a(F876
F672
tp925
a(F232
F607
tp926
asg10
I1
sg11
(lp927
g925
asg13
F540.25161600112915
sg14
F540.64445805549622
sg15
F540.43211007118225
sg16
g911
sg21
g912
sg23
I9
sg24
I4
sa(dp928
g4
I00
sg5
F296
sg6
(lp929
(F601
F633
tp930
asg10
I1
sg11
(lp931
g930
asg13
F541.34886407852173
sg14
F541.86119413375854
sg15
F541.65441107749939
sg16
g911
sg21
g912
sg23
I9
sg24
I1
sa(dp932
g4
I00
sg5
F56
sg6
(lp933
(F730
F470
tp934
a(F359
F420
tp935
a(F1011
F303
tp936
asg10
I1
sg11
(lp937
g934
asg13
F542.47388911247253
sg14
F542.74555110931396
sg15
F542.54334998130798
sg16
g911
sg21
g912
sg23
I9
sg24
I3
sa(dp938
g4
I00
sg5
F134
sg6
(lp939
(F155
F488
tp940
asg10
I1
sg11
(lp941
g940
asg13
F543.41149806976318
sg14
F543.96498799324036
sg15
F543.55730509757996
sg16
g911
sg21
g912
sg23
I9
sg24
I1
sa(dp942
g4
I00
sg5
F500
sg6
(lp943
g923
a(F937
F756
tp944
a(F938
F122
tp945
asg10
I1
sg11
(lp946
g923
asg13
F544.59204506874084
sg14
F545.38673210144043
sg15
F545.10605907440186
sg16
g911
sg21
g912
sg23
I9
sg24
I3
sa(dp947
g4
I00
sg5
F347
sg6
(lp948
(F1173
F270
tp949
a(F429
F828
tp950
asg10
I1
sg11
(lp951
g950
asg13
F545.93944001197815
sg14
F546.55551195144653
sg15
F546.30061197280884
sg16
g911
sg21
g912
sg23
I9
sg24
I2
sa(dp952
g4
I00
sg5
F77
sg6
(lp953
g926
a(F248
F787
tp954
a(F628
F768
tp955
a(F95
F201
tp956
a(F1043
F587
tp957
asg10
I1
sg11
(lp958
g955
asg13
F547.27967190742493
sg14
F547.54434990882874
sg15
F547.36997103691101
sg16
g911
sg21
g912
sg23
I9
sg24
I5
sa(dp959
g4
I00
sg5
F342
sg6
(lp960
g935
a(F453
F747
tp961
a(F839
F276
tp962
ag924
asg10
I1
sg11
(lp963
g961
asg13
F548.18252491950989
sg14
F548.74307298660278
sg15
F548.53673911094666
sg16
g911
sg21
g912
sg23
I9
sg24
I4
sa(dp964
g4
I00
sg5
F920
sg6
(lp965
(F826
F442
tp966
ag954
a(F1168
F94
tp967
ag935
a(F829
F773
tp968
asg10
I1
sg11
(lp969
g935
asg13
F549.44640111923218
sg14
F550.68088698387146
sg15
F550.37701892852783
sg16
g911
sg21
g912
sg23
I9
sg24
I5
sa(dp970
g4
I00
sg5
F435
sg6
(lp971
(F486
F264
tp972
a(F723
F766
tp973
a(F1024
F227
tp974
ag926
a(F277
F216
tp975
asg10
I1
sg11
(lp976
g972
asg13
F551.34932494163513
sg14
F551.99375295639038
sg15
F551.8078989982605
sg16
g911
sg21
g912
sg23
I9
sg24
I5
sa(dp977
g4
I00
sg5
F254
sg6
(lp978
(F645
F333
tp979
a(F796
F131
tp980
a(F1162
F730
tp981
a(F680
F699
tp982
asg10
I1
sg11
(lp983
g979
asg13
F552.65484094619751
sg14
F553.09769606590271
sg15
F552.91872811317444
sg16
g911
sg21
g912
sg23
I9
sg24
I4
sa(dp984
g4
I00
sg5
F109
sg6
(lp985
g957
a(F1091
F276
tp986
a(F345
F271
tp987
asg10
I1
sg11
(lp988
g957
asg13
F553.6757869720459
sg14
F554.24287009239197
sg15
F553.80091214179993
sg16
g911
sg21
g912
sg23
I9
sg24
I3
sa(dp989
g4
I00
sg5
F37
sg6
(lp990
(F407
F345
tp991
ag924
asg10
I1
sg11
(lp992
g991
asg13
F554.88414907455444
sg14
F555.4332959651947
sg15
F554.93275094032288
sg16
g911
sg21
g912
sg23
I9
sg24
I2
sa(dp993
g4
I00
sg5
F443
sg6
(lp994
(F1083
F448
tp995
ag962
asg10
I1
sg11
(lp996
g962
asg13
F556.02997612953186
sg14
F556.6636369228363
sg15
F556.48862314224243
sg16
g911
sg21
g912
sg23
I9
sg24
I2
sa(dp997
g4
I00
sg5
F617
sg6
(lp998
(F863
F849
tp999
a(F574
F96
tp1000
ag954
asg10
I1
sg11
(lp1001
g999
asg13
F557.37028193473816
sg14
F558.20750308036804
sg15
F558.00242900848389
sg16
g911
sg21
g912
sg23
I9
sg24
I3
sa(dp1002
g4
I00
sg5
F58
sg6
(lp1003
g956
ag954
a(F1023
F803
tp1004
asg10
I1
sg11
(lp1005
g954
asg13
F558.85647892951965
sg14
F559.72496891021729
sg15
F558.92589211463928
sg16
g911
sg21
g912
sg23
I9
sg24
I3
sa(dp1006
g4
I00
sg5
F10
sg6
(lp1007
(F917
F329
tp1008
asg10
I1
sg11
(lp1009
g1008
asg13
F560.3565890789032
sg14
F560.62649393081665
sg15
F560.38443207740784
sg16
g911
sg21
g912
sg23
I9
sg24
I1
sa(dp1010
g4
I00
sg5
F114
sg6
(lp1011
g949
a(F1016
F504
tp1012
a(F357
F730
tp1013
asg10
I1
sg11
(lp1014
g1013
asg13
F561.21767592430115
sg14
F561.53243398666382
sg15
F561.34264898300171
sg16
g911
sg21
g912
sg23
I9
sg24
I3
sa(dp1015
g4
I00
sg5
F59
sg6
(lp1016
g949
asg10
I1
sg11
(lp1017
g949
asg13
F562.23158407211304
sg14
F562.86950302124023
sg15
F562.30109405517578
sg16
g911
sg21
g912
sg23
I9
sg24
I1
sa(dp1018
g4
I00
sg5
F73
sg6
(lp1019
(F209
F720
tp1020
ag908
a(F342
F858
tp1021
asg10
I1
sg11
(lp1022
g908
asg13
F563.48857593536377
sg14
F563.8961980342865
sg15
F563.57189297676086
sg16
g911
sg21
g912
sg23
I9
sg24
I3
sa(dp1023
g4
I00
sg5
F287
sg6
(lp1024
g956
a(F1150
F346
tp1025
asg10
I1
sg11
(lp1026
g1025
asg13
F564.53030800819397
sg14
F565.29838991165161
sg15
F564.82895112037659
sg16
g911
sg21
g912
sg23
I9
sg24
I2
sa(dp1027
g4
I00
sg5
F65
sg6
(lp1028
g1020
ag945
a(F1186
F541
tp1029
ag1021
a(F553
F194
tp1030
asg10
I1
sg11
(lp1031
g1030
asg13
F565.94015502929688
sg14
F566.42979097366333
sg15
F566.01655912399292
sg16
g911
sg21
g912
sg23
I9
sg24
I5
sa(dp1032
g4
I00
sg5
F11
sg6
(lp1033
(F1176
F462
tp1034
ag944
ag1020
ag982
asg10
I1
sg11
(lp1035
g944
asg13
F567.01651811599731
sg14
F567.72178792953491
sg15
F567.04434895515442
sg16
g911
sg21
g912
sg23
I9
sg24
I4
sa(dp1036
g4
I00
sg5
F975
sg6
(lp1037
g936
a(F810
F351
tp1038
asg10
I1
sg11
(lp1039
g936
asg13
F568.36379814147949
sg14
F569.57739496231079
sg15
F569.34988808631897
sg16
g911
sg21
g912
sg23
I9
sg24
I2
saa(dp1040
g89
g90
sg91
g90
sg92
g93
sg94
g90
sa.