(lp1
(lp2
(dp3
S'trial'
p4
I0
sS'disp_bubbles'
p5
(lp6
sS'stim_onset'
p7
F38.31806492805481
sS'img'
p8
cnumpy.core.multiarray
scalar
p9
(cnumpy
dtype
p10
(S'S13'
I0
I1
tRp11
(I3
S'|'
NNNI13
I1
I0
tbS'image_168.bmp'
tRp12
sS'first_bubble'
p13
(F1105
F633
tp14
sS'chosen_bubble'
p15
(lp16
(F470.0999755859375
F627.70001220703125
tp17
asS'forced_fix_onset'
p18
F37.036520957946777
sS'saccade_offset'
p19
F39.032871961593628
sS'planned_disp_time'
p20
F1259
sa(dp21
g4
I0
sg5
(lp22
sg7
F39.134750843048096
sg8
g12
sg13
g14
sg15
(lp23
(F406
F537.20001220703125
tp24
asg18
F39.068147897720337
sg19
F39.98923397064209
sg20
F40
sa(dp25
g4
I0
sg5
(lp26
sg7
F40.251425981521606
sg8
g12
sg13
g14
sg15
(lp27
(F268.20001220703125
F376.5
tp28
asg18
F40.018156051635742
sg19
F40.252022981643677
sg20
F214
sa(dp29
g4
I0
sg5
(lp30
sg7
F40.401423931121826
sg8
g12
sg13
g14
sg15
(lp31
(F387.70001220703125
F508.89999389648438
tp32
asg18
F40.284836053848267
sg19
F40.402438879013062
sg20
F96
sa(dp33
g4
I0
sg5
(lp34
sg7
F40.768100023269653
sg8
g12
sg13
g14
sg15
(lp35
(F294.9000244140625
F455.5
tp36
asg18
F40.434843063354492
sg19
F40.768806934356689
sg20
F314
sa(dp37
g4
I0
sg5
(lp38
sg7
F40.901439905166626
sg8
g12
sg13
g14
sg15
(lp39
(F411.9000244140625
F564.20001220703125
tp40
asg18
F40.801516056060791
sg19
F41.373003005981445
sg20
F69
sa(dp41
g4
I0
sg5
(lp42
sg7
F42.201462030410767
sg8
g12
sg13
g14
sg15
(lp43
(F694.20001220703125
F574.10000610351562
tp44
asg18
F41.40152907371521
sg19
F42.979124069213867
sg20
F776
sa(dp45
g4
I0
sg5
(lp46
sg7
F43.751477956771851
sg8
g12
sg13
g14
sg15
(lp47
(F642.0999755859375
F329.9000244140625
tp48
asg18
F43.001540899276733
sg19
F44.130764961242676
sg20
F725
sa(dp49
g4
I0
sg5
(lp50
sg7
F44.40149188041687
sg8
g12
sg13
g14
sg15
(lp51
(F394
F671.29998779296875
tp52
asg18
F44.151581048965454
sg19
F44.827862977981567
sg20
F223
sa(dp53
g4
I0
sg5
(lp54
sg7
F45.018190860748291
sg8
g12
sg13
g14
sg15
(lp55
(F499.20001220703125
F568.89999389648438
tp56
asg18
F44.85159707069397
sg19
F45.515101909637451
sg20
F147
sa(dp57
g4
I0
sg5
(lp58
sg7
F45.901509046554565
sg8
g12
sg13
g14
sg15
(lp59
(F550.9000244140625
F736.20001220703125
tp60
asg18
F45.534921884536743
sg19
F46.469002962112427
sg20
F335
sa(dp61
g4
I0
sg5
(lp62
sg7
F46.618192911148071
sg8
g12
sg13
g14
sg15
(lp63
(F314.9000244140625
F608.60000610351562
tp64
asg18
F46.50164794921875
sg19
F47.059269905090332
sg20
F87
sa(dp65
g4
I0
sg5
(lp66
sg7
F47.384862899780273
sg8
g12
sg13
g14
sg15
(lp67
(F498.5
F613.29998779296875
tp68
asg18
F47.084961891174316
sg19
F47.655890941619873
sg20
F279
sa(dp69
g4
I0
sg5
(lp70
sg7
F48.18488597869873
sg8
g12
sg13
g14
sg15
(lp71
(F337.4000244140625
F535.79998779296875
tp72
asg18
F47.685003995895386
sg19
F48.49294900894165
sg20
F467
sa(dp73
g4
I0
sg5
(lp74
sg7
F49.484905958175659
sg8
g12
sg13
g14
sg15
(lp75
(F531.9000244140625
F552.89999389648438
tp76
asg18
F48.518311977386475
sg19
F49.767297029495239
sg20
F943
sa(dp77
g4
I0
sg5
(lp78
sg7
F50.201576948165894
sg8
g12
sg13
g14
sg15
(lp79
(F178.89999389648438
F754.60000610351562
tp80
asg18
F49.801681995391846
sg19
F50.503525972366333
sg20
F375
saa(dp81
S'right_bubble'
p82
(lp83
(F647
F453
tp84
asS'correct'
p85
(lp86
(F711
F854
tp87
asS'subject_number'
p88
S'56'
p89
sS'left_bubble'
p90
I01
sa(lp91
(dp92
g4
I1
sg5
(lp93
sg7
F52.818243980407715
sg8
g9
(g10
(S'S13'
I0
I1
tRp94
(I3
S'|'
NNNI13
I1
I0
tbS'image_132.bmp'
tRp95
sg13
(F944
F464
tp96
sg15
(lp97
(F886.9000244140625
F655.70001220703125
tp98
asg18
F52.53502893447876
sg19
F53.286813020706177
sg20
F63
sa(dp99
g4
I1
sg5
(lp100
sg7
F53.501581907272339
sg8
g95
sg13
g96
sg15
(lp101
(F585.9000244140625
F417.20001220703125
tp102
asg18
F53.31839394569397
sg19
F53.790827989578247
sg20
F165
sa(dp103
g4
I1
sg5
(lp104
sg7
F54.084924936294556
sg8
g95
sg13
g96
sg15
(lp105
(F982.800048828125
F451.0999755859375
tp106
asg18
F53.818382978439331
sg19
F54.424946069717407
sg20
F239
sa(dp107
g4
I1
sg5
(lp108
sg7
F54.801599979400635
sg8
g95
sg13
g96
sg15
(lp109
(F456.70001220703125
F691.70001220703125
tp110
asg18
F54.451739072799683
sg19
F55.096798896789551
sg20
F331
sa(dp111
g4
I1
sg5
(lp112
sg7
F55.58495306968689
sg8
g95
sg13
g96
sg15
(lp113
(F432.79998779296875
F384.4000244140625
tp114
asg18
F55.118414878845215
sg19
F55.898975849151611
sg20
F433
sa(dp115
g4
I1
sg5
(lp116
sg7
F56.134952068328857
sg8
g95
sg13
g96
sg15
(lp117
(F812.5999755859375
F649.20001220703125
tp118
asg18
F55.918416023254395
sg19
F56.459058046340942
sg20
F196
sa(dp119
g4
I1
sg5
(lp120
sg7
F56.918308973312378
sg8
g95
sg13
g96
sg15
(lp121
(F478
F527.20001220703125
tp122
asg18
F56.485069990158081
sg19
F57.182715892791748
sg20
F409
sa(dp123
g4
I1
sg5
(lp124
sg7
F57.35164999961853
sg8
g95
sg13
g96
sg15
(lp125
(F898.5
F481.0999755859375
tp126
asg18
F57.201758861541748
sg19
F57.704859972000122
sg20
F121
sa(dp127
g4
I1
sg5
(lp128
sg7
F57.801652908325195
sg8
g95
sg13
g96
sg15
(lp129
(F477.5999755859375
F497.0999755859375
tp130
asg18
F57.735138893127441
sg19
F58.172777891159058
sg20
F38
sa(dp131
g4
I1
sg5
(lp132
sg7
F58.718327045440674
sg8
g95
sg13
g96
sg15
(lp133
(F640.5999755859375
F412.20001220703125
tp134
asg18
F58.201767921447754
sg19
F58.975265979766846
sg20
F490
sa(dp135
g4
I1
sg5
(lp136
sg7
F59.418341875076294
sg8
g95
sg13
g96
sg15
(lp137
(F666.29998779296875
F676.70001220703125
tp138
asg18
F59.001808881759644
sg19
F59.58071494102478
sg20
F389
sa(dp139
g4
I1
sg5
(lp140
sg7
F59.651675939559937
sg8
g95
sg13
g96
sg15
(lp141
(F403.20001220703125
F521.60000610351562
tp142
asg18
F59.601796865463257
sg19
F60.14471697807312
sg20
F28
sa(dp143
g4
I1
sg5
(lp144
sg7
F60.218358039855957
sg8
g95
sg13
g96
sg15
(lp145
(F675.5999755859375
F472.29998779296875
tp146
asg18
F60.168478012084961
sg19
F60.616940975189209
sg20
F17
sa(dp147
g4
I1
sg5
(lp148
sg7
F61.385035037994385
sg8
g95
sg13
g96
sg15
(lp149
(F310.0999755859375
F377.20001220703125
tp150
asg18
F60.651816844940186
sg19
F61.620795965194702
sg20
F710
sa(dp151
g4
I1
sg5
(lp152
sg7
F61.935054063796997
sg8
g95
sg13
g96
sg15
(lp153
(F715
F322.0999755859375
tp154
asg18
F61.65182900428772
sg19
F62.220522880554199
sg20
F259
sa(dp155
g4
I1
sg5
(lp156
sg7
F62.501718997955322
sg8
g95
sg13
g96
sg15
(lp157
(F983.9000244140625
F452.9000244140625
tp158
asg18
F62.251864910125732
sg19
F62.772716999053955
sg20
F218
sa(dp159
g4
I1
sg5
(lp160
sg7
F63.251736879348755
sg8
g95
sg13
g96
sg15
(lp161
(F1065.699951171875
F819.69999694824219
tp162
asg18
F62.801846981048584
sg19
F63.426728010177612
sg20
F416
sa(dp163
g4
I1
sg5
(lp164
sg7
F63.78507399559021
sg8
g95
sg13
g96
sg15
(lp165
(F455.20001220703125
F774.89999389648438
tp166
asg18
F63.451905965805054
sg19
F63.975055932998657
sg20
F314
sa(dp167
g4
I1
sg5
(lp168
sg7
F64.401749849319458
sg8
g95
sg13
g96
sg15
(lp169
(F498.0999755859375
F640
tp170
asg18
F64.001865863800049
sg19
F64.488875865936279
sg20
F369
sa(dp171
g4
I1
sg5
(lp172
sg7
F64.601781845092773
sg8
g95
sg13
g96
sg15
(lp173
(F784.0999755859375
F794.10000610351562
tp174
asg18
F64.518547058105469
sg19
F64.948648929595947
sg20
F63
sa(dp175
g4
I1
sg5
(lp176
sg7
F65.21842885017395
sg8
g95
sg13
g96
sg15
(lp177
(F650.5999755859375
F563
tp178
asg18
F64.968554019927979
sg19
F65.509158849716187
sg20
F220
sa(dp179
g4
I1
sg5
(lp180
sg7
F66.13510799407959
sg8
g95
sg13
g96
sg15
(lp181
(F292.29998779296875
F595.10000610351562
tp182
asg18
F65.535665988922119
sg19
F66.136528968811035
sg20
F578
saa(dp183
g82
(lp184
(F810
F385
tp185
asg85
(lp186
(F970
F140
tp187
asg88
g89
sg90
I01
sa.