(lp1
(lp2
(dp3
S'whole_image_condition'
p4
I00
sS'planned_disp_time'
p5
F113
sS'disp_bubbles'
p6
(lp7
(F442
F729
tp8
asS'control_condition'
p9
I0
sS'chosen_bubble'
p10
(lp11
g8
asS'forced_fix_onset'
p12
F270.66652703285217
sS'saccade_offset'
p13
F271.1401309967041
sS'stim_onset'
p14
F270.91480994224548
sS'img'
p15
cnumpy.core.multiarray
scalar
p16
(cnumpy
dtype
p17
(S'S13'
I0
I1
tRp18
(I3
S'|'
NNNI13
I1
I0
tbS'image_169.bmp'
tRp19
sS'first_bubble'
p20
(F925
F547
tp21
sS'trial'
p22
I1
sS'num_bubbles'
p23
I1
sa(dp24
g4
I00
sg5
F178
sg6
(lp25
(F173
F404
tp26
asg9
I0
sg10
(lp27
g26
asg12
F271.16511106491089
sg13
F271.61244606971741
sg14
F271.36479711532593
sg15
g19
sg20
g21
sg22
I1
sg23
I1
sa(dp28
g4
I00
sg5
F781
sg6
(lp29
(F555
F577
tp30
a(F721
F665
tp31
a(F1155
F92
tp32
a(F923
F846
tp33
a(F410
F817
tp34
a(F174
F614
tp35
a(F337
F425
tp36
a(F637
F208
tp37
asg9
I0
sg10
(lp38
g36
asg12
F271.64844989776611
sg13
F272.91670799255371
sg14
F272.44822001457214
sg15
g19
sg20
g21
sg22
I1
sg23
I8
sa(dp39
g4
I00
sg5
F504
sg6
(lp40
(F510
F387
tp41
a(F129
F844
tp42
asg9
I0
sg10
(lp43
g41
asg12
F272.94847202301025
sg13
F273.66193604469299
sg14
F273.48150205612183
sg15
g19
sg20
g21
sg22
I1
sg23
I2
sa(dp44
g4
I00
sg5
F354
sg6
(lp45
(F181
F247
tp46
a(F1084
F150
tp47
a(F93
F765
tp48
ag34
a(F650
F620
tp49
a(F250
F452
tp50
a(F953
F738
tp51
a(F251
F867
tp52
asg9
I0
sg10
(lp53
g49
asg12
F273.68179798126221
sg13
F274.31236290931702
sg14
F274.06488299369812
sg15
g19
sg20
g21
sg22
I1
sg23
I8
sa(dp54
g4
I00
sg5
F177
sg6
(lp55
(F918
F346
tp56
a(F688
F375
tp57
a(F282
F781
tp58
a(F863
F744
tp59
a(F235
F118
tp60
a(F439
F437
tp61
a(F1180
F860
tp62
a(F403
F95
tp63
a(F1135
F221
tp64
a(F518
F763
tp65
a(F1000
F655
tp66
a(F781
F205
tp67
a(F235
F347
tp68
a(F493
F236
tp69
a(F1132
F509
tp70
ag35
asg9
I0
sg10
(lp71
g59
asg12
F274.34850311279297
sg13
F274.82858109474182
sg14
F274.54832601547241
sg15
g19
sg20
g21
sg22
I1
sg23
I16
sa(dp72
g4
I00
sg5
F410
sg6
(lp73
(F811
F549
tp74
ag37
ag68
ag64
ag60
a(F1187
F437
tp75
a(F129
F547
tp76
a(F1034
F468
tp77
asg9
I0
sg10
(lp78
g77
asg12
F274.865159034729
sg13
F275.50640511512756
sg14
F275.29826211929321
sg15
g19
sg20
g21
sg22
I1
sg23
I8
sa(dp79
g4
I00
sg5
F299
sg6
(lp80
(F682
F277
tp81
a(F660
F859
tp82
ag68
a(F453
F514
tp83
ag65
ag52
a(F1037
F722
tp84
a(F393
F319
tp85
asg9
I0
sg10
(lp86
g81
asg12
F275.53184103965759
sg13
F276.36450600624084
sg14
F275.86488199234009
sg15
g19
sg20
g21
sg22
I1
sg23
I8
sa(dp87
g4
I00
sg5
F591
sg6
(lp88
(F1043
F586
tp89
a(F957
F127
tp90
ag48
a(F1087
F389
tp91
ag51
ag68
ag69
a(F362
F501
tp92
asg9
I0
sg10
(lp93
g90
asg12
F276.39848899841309
sg13
F277.22969698905945
sg14
F277.01496696472168
sg15
g19
sg20
g21
sg22
I1
sg23
I8
sa(dp94
g4
I00
sg5
F172
sg6
(lp95
(F316
F328
tp96
a(F1005
F834
tp97
a(F109
F347
tp98
a(F127
F162
tp99
ag52
a(F670
F129
tp100
ag89
a(F1177
F358
tp101
ag31
a(F136
F680
tp102
a(F805
F816
tp103
ag62
ag92
ag63
a(F570
F696
tp104
ag32
asg9
I0
sg10
(lp105
g100
asg12
F277.24853205680847
sg13
F277.94661092758179
sg14
F277.44833993911743
sg15
g19
sg20
g21
sg22
I1
sg23
I16
sa(dp106
g4
I00
sg5
F636
sg6
(lp107
(F508
F96
tp108
a(F884
F91
tp109
a(F563
F269
tp110
ag34
asg9
I0
sg10
(lp111
g110
asg12
F277.98188805580139
sg13
F278.91409707069397
sg14
F278.64832091331482
sg15
g19
sg20
g21
sg22
I1
sg23
I4
sa(dp112
g4
I00
sg5
F37
sg6
(lp113
g68
a(F653
F750
tp114
a(F589
F457
tp115
a(F808
F689
tp116
ag91
a(F251
F594
tp117
ag67
ag85
a(F335
F843
tp118
ag42
ag99
a(F1180
F625
tp119
ag56
ag108
a(F92
F467
tp120
ag64
asg9
I0
sg10
(lp121
g67
asg12
F278.94856309890747
sg13
F279.24641299247742
sg14
F279.01501703262329
sg15
g19
sg20
g21
sg22
I1
sg23
I16
sa(dp122
g4
I01
sg5
F233
sg6
(lp123
sg9
I0
sg10
(lp124
(F755.5
F360.29998779296875
tp125
asg12
F279.28190898895264
sg13
F279.85610890388489
sg14
F279.54843306541443
sg15
g19
sg20
g21
sg22
I1
sg23
I0
sa(dp126
g4
I00
sg5
F415
sg6
(lp127
g56
ag50
ag52
ag98
asg9
I0
sg10
(lp128
g56
asg12
F279.88191604614258
sg13
F280.62412095069885
sg14
F280.31493091583252
sg15
g19
sg20
g21
sg22
I1
sg23
I4
sa(dp129
g4
I00
sg5
F401
sg6
(lp130
g68
ag92
ag85
ag109
ag99
ag103
ag74
ag65
asg9
I0
sg10
(lp131
g109
asg12
F280.64856195449829
sg13
F281.28606200218201
sg14
F281.08167695999146
sg15
g19
sg20
g21
sg22
I1
sg23
I8
sa(dp132
g4
I00
sg5
F149
sg6
(lp133
g37
ag63
ag117
ag75
ag104
ag103
ag64
ag58
asg9
I0
sg10
(lp134
g37
asg12
F281.31525206565857
sg13
F281.91442012786865
sg14
F281.49836802482605
sg15
g19
sg20
g21
sg22
I1
sg23
I8
sa(dp135
g4
I00
sg5
F123
sg6
(lp136
g31
asg9
I0
sg10
(lp137
g31
asg12
F281.94860005378723
sg13
F282.58646202087402
sg14
F282.09829711914062
sg15
g19
sg20
g21
sg22
I1
sg23
I1
sa(dp138
g4
I00
sg5
F308
sg6
(lp139
(F416
F649
tp140
a(F612
F352
tp141
a(F408
F194
tp142
ag68
ag35
a(F808
F451
tp143
ag99
ag91
asg9
I0
sg10
(lp144
g143
asg12
F282.61526203155518
sg13
F283.17814993858337
sg14
F282.94836211204529
sg15
g19
sg20
g21
sg22
I1
sg23
I8
sa(dp145
g4
I00
sg5
F138
sg6
(lp146
(F1029
F297
tp147
a(F1126
F683
tp148
a(F919
F664
tp149
ag60
a(F563
F848
tp150
ag120
ag68
ag92
asg9
I0
sg10
(lp151
g148
asg12
F283.19859099388123
sg13
F283.69481492042542
sg14
F283.36504006385803
sg15
g19
sg20
g21
sg22
I1
sg23
I8
saa(dp152
S'right_bubble'
p153
(lp154
(F105
F566
tp155
asS'correct'
p156
I01
sS'subject_number'
p157
S'1'
sS'left_bubble'
p158
(lp159
(F891
F374
tp160
asa(lp161
(dp162
g4
I00
sg5
F33
sg6
(lp163
(F103
F717
tp164
a(F581
F731
tp165
a(F356
F503
tp166
a(F993
F379
tp167
a(F783
F643
tp168
a(F643
F189
tp169
a(F792
F356
tp170
a(F577
F533
tp171
asg9
I0
sg10
(lp172
g168
asg12
F287.91543006896973
sg13
F288.62458300590515
sg14
F288.33179712295532
sg15
g16
(g17
(S'S13'
I0
I1
tRp173
(I3
S'|'
NNNI13
I1
I0
tbS'image_134.bmp'
tRp174
sg20
(F1022
F629
tp175
sg22
I2
sg23
I8
sa(dp176
g4
I00
sg5
F252
sg6
(lp177
(F575
F429
tp178
a(F431
F204
tp179
ag164
a(F580
F634
tp180
asg9
I0
sg10
(lp181
g180
asg12
F288.64869689941406
sg13
F289.1421070098877
sg14
F288.93178200721741
sg15
g174
sg20
g175
sg22
I2
sg23
I4
sa(dp182
g4
I00
sg5
F1
sg6
(lp183
(F710
F422
tp184
a(F888
F458
tp185
asg9
I0
sg10
(lp186
g184
asg12
F289.16539692878723
sg13
F290.31017303466797
sg14
F289.19841599464417
sg15
g174
sg20
g175
sg22
I2
sg23
I2
sa(dp187
g4
I00
sg5
F283
sg6
(lp188
(F487
F318
tp189
a(F183
F856
tp190
a(F894
F858
tp191
ag171
ag165
a(F121
F418
tp192
a(F297
F562
tp193
a(F940
F146
tp194
asg9
I0
sg10
(lp195
g189
asg12
F290.33207392692566
sg13
F290.84057998657227
sg14
F290.64849305152893
sg15
g174
sg20
g175
sg22
I2
sg23
I8
sa(dp196
g4
I00
sg5
F48
sg6
(lp197
(F727
F503
tp198
a(F734
F195
tp199
asg9
I0
sg10
(lp200
g199
asg12
F290.86542201042175
sg13
F291.1934700012207
sg14
F290.9484920501709
sg15
g174
sg20
g175
sg22
I2
sg23
I2
sa(dp201
g4
I00
sg5
F506
sg6
(lp202
(F932
F786
tp203
a(F304
F132
tp204
a(F990
F536
tp205
a(F390
F584
tp206
asg9
I0
sg10
(lp207
g204
asg12
F291.21539402008057
sg13
F292.12346792221069
sg14
F291.74848508834839
sg15
g174
sg20
g175
sg22
I2
sg23
I4
sa(dp208
g4
I00
sg5
F158
sg6
(lp209
(F658
F313
tp210
a(F504
F618
tp211
asg9
I0
sg10
(lp212
g211
asg12
F292.14876198768616
sg13
F292.69225192070007
sg14
F292.3318018913269
sg15
g174
sg20
g175
sg22
I2
sg23
I2
sa(dp213
g4
I00
sg5
F408
sg6
(lp214
(F358
F388
tp215
a(F719
F697
tp216
a(F868
F655
tp217
ag179
asg9
I0
sg10
(lp218
g216
asg12
F292.71542191505432
sg13
F293.39807200431824
sg14
F293.14851808547974
sg15
g174
sg20
g175
sg22
I2
sg23
I4
sa(dp219
g4
I00
sg5
F319
sg6
(lp220
(F292
F654
tp221
a(F1037
F739
tp222
a(F568
F322
tp223
ag215
a(F508
F145
tp224
a(F827
F561
tp225
ag170
a(F975
F457
tp226
asg9
I0
sg10
(lp227
g225
asg12
F293.43214106559753
sg13
F293.99005389213562
sg14
F293.78185892105103
sg15
g174
sg20
g175
sg22
I2
sg23
I8
sa(dp228
g4
I00
sg5
F198
sg6
(lp229
g215
ag205
a(F1060
F829
tp230
ag223
asg9
I0
sg10
(lp231
g223
asg12
F294.01547598838806
sg13
F294.51815795898438
sg14
F294.23182797431946
sg15
g174
sg20
g175
sg22
I2
sg23
I4
sa(dp232
g4
I00
sg5
F468
sg6
(lp233
g165
a(F101
F519
tp234
asg9
I0
sg10
(lp235
g165
asg12
F294.54880690574646
sg13
F295.25842905044556
sg14
F295.04851007461548
sg15
g174
sg20
g175
sg22
I2
sg23
I2
sa(dp236
g4
I00
sg5
F360
sg6
(lp237
(F360
F723
tp238
ag171
a(F292
F449
tp239
a(F178
F759
tp240
a(F311
F227
tp241
a(F802
F465
tp242
a(F436
F386
tp243
a(F551
F238
tp244
asg9
I0
sg10
(lp245
g242
asg12
F295.28215193748474
sg13
F295.86024188995361
sg14
F295.66522407531738
sg15
g174
sg20
g175
sg22
I2
sg23
I8
sa(dp246
g4
I00
sg5
F748
sg6
(lp247
g167
asg9
I0
sg10
(lp248
g167
asg12
F295.88214206695557
sg13
F296.85833406448364
sg14
F296.64855909347534
sg15
g174
sg20
g175
sg22
I2
sg23
I1
sa(dp249
g4
I00
sg5
F261
sg6
(lp250
g206
a(F488
F707
tp251
a(F142
F321
tp252
ag215
asg9
I0
sg10
(lp253
g215
asg12
F296.88216805458069
sg13
F297.50397396087646
sg14
F297.16521906852722
sg15
g174
sg20
g175
sg22
I2
sg23
I4
sa(dp254
g4
I00
sg5
F608
sg6
(lp255
(F775
F261
tp256
ag206
a(F1147
F621
tp257
ag194
asg9
I0
sg10
(lp258
g256
asg12
F297.53217506408691
sg13
F298.36415195465088
sg14
F298.16527199745178
sg15
g174
sg20
g175
sg22
I2
sg23
I4
sa(dp259
g4
I00
sg5
F838
sg6
(lp260
g206
ag171
ag230
ag251
ag194
ag234
a(F1141
F393
tp261
a(F212
F125
tp262
asg9
I0
sg10
(lp263
g194
asg12
F298.39887499809265
sg13
F299.4904990196228
sg14
F299.26531410217285
sg15
g174
sg20
g175
sg22
I2
sg23
I8
sa(dp264
g4
I00
sg5
F140
sg6
(lp265
g244
a(F1075
F438
tp266
a(F470
F812
tp267
ag206
asg9
I0
sg10
(lp268
g244
asg12
F299.51552700996399
sg13
F299.99579691886902
sg14
F299.6819589138031
sg15
g174
sg20
g175
sg22
I2
sg23
I4
sa(dp269
g4
I00
sg5
F416
sg6
(lp270
g243
a(F205
F666
tp271
a(F811
F738
tp272
ag241
asg9
I0
sg10
(lp273
g243
asg12
F300.03220891952515
sg13
F300.68371200561523
sg14
F300.48196792602539
sg15
g174
sg20
g175
sg22
I2
sg23
I4
saa(dp274
g153
(lp275
(F941
F518
tp276
asg156
I01
sg157
S'1'
sg158
(lp277
(F172
F498
tp278
asa(lp279
(dp280
g4
I00
sg5
F787
sg6
(lp281
(F819
F587
tp282
a(F331
F322
tp283
a(F127
F553
tp284
a(F118
F174
tp285
a(F773
F170
tp286
a(F1119
F329
tp287
a(F473
F436
tp288
a(F511
F269
tp289
a(F793
F335
tp290
a(F933
F430
tp291
a(F173
F822
tp292
a(F586
F619
tp293
a(F786
F794
tp294
a(F971
F216
tp295
a(F1016
F852
tp296
a(F1069
F510
tp297
asg9
I0
sg10
(lp298
g286
asg12
F304.43227005004883
sg13
F305.46152210235596
sg14
F305.24876093864441
sg15
g16
(g17
(S'S13'
I0
I1
tRp299
(I3
S'|'
NNNI13
I1
I0
tbS'image_191.bmp'
tRp300
sg20
(F354
F91
tp301
sg22
I3
sg23
I16
sa(dp302
g4
I00
sg5
F19
sg6
(lp303
(F835
F416
tp304
ag282
a(F670
F746
tp305
a(F267
F862
tp306
asg9
I0
sg10
(lp307
g282
asg12
F305.48231792449951
sg13
F305.77172803878784
sg14
F305.53203797340393
sg15
g300
sg20
g301
sg22
I3
sg23
I4
sa(dp308
g4
I00
sg5
F8
sg6
(lp309
(F869
F854
tp310
ag293
a(F222
F281
tp311
a(F1096
F657
tp312
a(F236
F477
tp313
ag306
a(F593
F778
tp314
ag289
asg9
I0
sg10
(lp315
g293
asg12
F305.79896593093872
sg13
F306.17418599128723
sg14
F305.84870791435242
sg15
g300
sg20
g301
sg22
I3
sg23
I8
sa(dp316
g4
I00
sg5
F120
sg6
(lp317
g310
a(F1019
F722
tp318
a(F1074
F136
tp319
a(F741
F462
tp320
ag314
a(F280
F554
tp321
a(F847
F245
tp322
a(F114
F425
tp323
asg9
I0
sg10
(lp324
g320
asg12
F306.19897890090942
sg13
F306.56819105148315
sg14
F306.34873795509338
sg15
g300
sg20
g301
sg22
I3
sg23
I8
sa(dp325
g4
I00
sg5
F82
sg6
(lp326
g296
a(F624
F857
tp327
a(F449
F637
tp328
a(F498
F349
tp329
asg9
I0
sg10
(lp330
g329
asg12
F306.59896898269653
sg13
F307.17432904243469
sg14
F306.69869709014893
sg15
g300
sg20
g301
sg22
I3
sg23
I4
sa(dp331
g4
I00
sg5
F554
sg6
(lp332
(F729
F554
tp333
a(F300
F195
tp334
a(F996
F115
tp335
a(F466
F539
tp336
asg9
I0
sg10
(lp337
g333
asg12
F307.19900703430176
sg13
F307.97594809532166
sg14
F307.78211212158203
sg15
g300
sg20
g301
sg22
I3
sg23
I4
sa(dp338
g4
I00
sg5
F128
sg6
(lp339
g297
ag310
ag336
a(F1168
F202
tp340
a(F912
F627
tp341
a(F273
F761
tp342
a(F482
F716
tp343
a(F632
F162
tp344
a(F913
F311
tp345
a(F829
F106
tp346
a(F412
F367
tp347
ag284
a(F1087
F774
tp348
a(F465
F93
tp349
ag285
a(F91
F846
tp350
asg9
I0
sg10
(lp351
g341
asg12
F307.99902200698853
sg13
F308.4442310333252
sg14
F308.14882397651672
sg15
g300
sg20
g301
sg22
I3
sg23
I16
sa(dp352
g4
I00
sg5
F179
sg6
(lp353
g283
ag294
a(F1097
F866
tp354
a(F1017
F422
tp355
a(F368
F553
tp356
a(F133
F642
tp357
a(F138
F312
tp358
a(F648
F555
tp359
ag295
a(F1149
F518
tp360
ag344
ag290
ag314
a(F408
F774
tp361
ag340
ag349
asg9
I0
sg10
(lp362
g360
asg12
F308.46569108963013
sg13
F309.04362797737122
sg14
F308.66550493240356
sg15
g300
sg20
g301
sg22
I3
sg23
I16
sa(dp363
g4
I00
sg5
F232
sg6
(lp364
g359
ag349
ag314
ag288
a(F1011
F339
tp365
a(F189
F401
tp366
ag319
ag354
asg9
I0
sg10
(lp367
g359
asg12
F309.06571006774902
sg13
F309.90210509300232
sg14
F309.3321259021759
sg15
g300
sg20
g301
sg22
I3
sg23
I8
sa(dp368
g4
I00
sg5
F588
sg6
(lp369
g291
a(F708
F817
tp370
ag343
a(F1012
F569
tp371
asg9
I0
sg10
(lp372
g370
asg12
F309.93238711357117
sg13
F310.77225995063782
sg14
F310.54876494407654
sg15
g300
sg20
g301
sg22
I3
sg23
I4
sa(dp373
g4
I00
sg5
F104
sg6
(lp374
g345
ag289
a(F561
F697
tp375
a(F145
F731
tp376
asg9
I0
sg10
(lp377
g375
asg12
F310.79908800125122
sg13
F311.1259560585022
sg14
F310.93212890625
sg15
g300
sg20
g301
sg22
I3
sg23
I4
sa(dp378
g4
I00
sg5
F708
sg6
(lp379
g285
ag297
asg9
I0
sg10
(lp380
g297
asg12
F311.14909410476685
sg13
F312.13979601860046
sg14
F311.88215708732605
sg15
g300
sg20
g301
sg22
I3
sg23
I2
sa(dp381
g4
I00
sg5
F141
sg6
(lp382
(F612
F407
tp383
asg9
I0
sg10
(lp384
g383
asg12
F312.16576504707336
sg13
F312.98216390609741
sg14
F312.33211708068848
sg15
g300
sg20
g301
sg22
I3
sg23
I1
sa(dp385
g4
I00
sg5
F1712
sg6
(lp386
g323
a(F908
F162
tp387
a(F227
F614
tp388
a(F364
F861
tp389
asg9
I0
sg10
(lp390
g388
asg12
F313.01573610305786
sg13
F315.10597705841064
sg14
F314.74885702133179
sg15
g300
sg20
g301
sg22
I3
sg23
I4
sa(dp391
g4
I00
sg5
F52
sg6
(lp392
g285
ag345
a(F557
F105
tp393
a(F920
F533
tp394
asg9
I0
sg10
(lp395
g345
asg12
F315.13245391845703
sg13
F315.6381049156189
sg14
F315.21553707122803
sg15
g300
sg20
g301
sg22
I3
sg23
I4
sa(dp396
g4
I00
sg5
F6
sg6
(lp397
(F517
F185
tp398
ag296
ag311
ag371
a(F236
F692
tp399
ag389
a(F845
F500
tp400
ag350
asg9
I0
sg10
(lp401
g400
asg12
F315.6657989025116
sg13
F315.91214990615845
sg14
F315.71553802490234
sg15
g300
sg20
g301
sg22
I3
sg23
I8
sa(dp402
g4
I00
sg5
F32
sg6
(lp403
g387
ag290
ag289
ag296
ag358
a(F1160
F742
tp404
a(F1042
F262
tp405
ag361
asg9
I0
sg10
(lp406
g290
asg12
F315.93248605728149
sg13
F316.22555208206177
sg14
F315.98224210739136
sg15
g300
sg20
g301
sg22
I3
sg23
I8
sa(dp407
g4
I00
sg5
F333
sg6
(lp408
(F1124
F434
tp409
ag312
ag340
a(F514
F838
tp410
asg9
I0
sg10
(lp411
g410
asg12
F316.24915289878845
sg13
F316.87610793113708
sg14
F316.61555290222168
sg15
g300
sg20
g301
sg22
I3
sg23
I4
sa(dp412
g4
I00
sg5
F26
sg6
(lp413
g291
ag357
ag313
ag318
ag387
ag334
ag285
ag405
a(F823
F718
tp414
ag349
ag409
a(F740
F263
tp415
a(F1185
F110
tp416
a(F1179
F593
tp417
ag342
ag354
asg9
I0
sg10
(lp418
g342
asg12
F316.89914512634277
sg13
F317.21957802772522
sg14
F316.94897890090942
sg15
g300
sg20
g301
sg22
I3
sg23
I16
sa(dp419
g4
I00
sg5
F68
sg6
(lp420
g311
ag417
ag291
a(F1182
F859
tp421
ag387
ag405
ag409
ag305
ag415
ag328
ag416
a(F557
F517
tp422
ag371
a(F401
F283
tp423
a(F884
F775
tp424
a(F719
F109
tp425
asg9
I0
sg10
(lp426
g305
asg12
F317.24916100502014
sg13
F317.52194404602051
sg14
F317.34898805618286
sg15
g300
sg20
g301
sg22
I3
sg23
I16
sa(dp427
g4
I00
sg5
F1583
sg6
(lp428
g311
ag291
asg9
I0
sg10
(lp429
g291
asg12
F317.54918909072876
sg13
F319.40979099273682
sg14
F319.16556310653687
sg15
g300
sg20
g301
sg22
I3
sg23
I2
saa(dp430
g153
(lp431
(F384
F792
tp432
asg156
I00
sg157
S'1'
sg158
(lp433
(F935
F150
tp434
asa(lp435
(dp436
g4
I00
sg5
F128
sg6
(lp437
(F590
F400
tp438
a(F676
F694
tp439
a(F519
F647
tp440
a(F1099
F681
tp441
asg9
I0
sg10
(lp442
g438
asg12
F322.86591911315918
sg13
F323.28937792778015
sg14
F323.08231806755066
sg15
g16
(g17
(S'S13'
I0
I1
tRp443
(I3
S'|'
NNNI13
I1
I0
tbS'image_150.bmp'
tRp444
sg20
(F832
F572
tp445
sg22
I4
sg23
I4
sa(dp446
g4
I01
sg5
F20
sg6
(lp447
sg9
I0
sg10
(lp448
(F507.29998779296875
F498.5
tp449
asg12
F323.31593894958496
sg13
F324.32815289497375
sg14
F323.36583709716797
sg15
g444
sg20
g445
sg22
I4
sg23
I0
sa(dp450
g4
I00
sg5
F146
sg6
(lp451
(F1141
F164
tp452
a(F130
F869
tp453
a(F1154
F620
tp454
a(F586
F696
tp455
a(F135
F440
tp456
a(F904
F522
tp457
a(F733
F351
tp458
a(F744
F571
tp459
asg9
I0
sg10
(lp460
g457
asg12
F324.34925293922424
sg13
F324.51651811599731
sg14
F324.51567411422729
sg15
g444
sg20
g445
sg22
I4
sg23
I8
sa(dp461
g4
I00
sg5
F127
sg6
(lp462
(F627
F621
tp463
a(F560
F846
tp464
asg9
I0
sg10
(lp465
g463
asg12
F324.54926204681396
sg13
F325.02369999885559
sg14
F324.69896793365479
sg15
g444
sg20
g445
sg22
I4
sg23
I2
sa(dp466
g4
I01
sg5
F506
sg6
(lp467
sg9
I0
sg10
(lp468
(F487.70001220703125
F664.39999389648438
tp469
asg12
F325.04927206039429
sg13
F326.16443204879761
sg14
F325.58252692222595
sg15
g444
sg20
g445
sg22
I4
sg23
I0
sa(dp470
g4
I00
sg5
F248
sg6
(lp471
(F678
F257
tp472
asg9
I0
sg10
(lp473
g472
asg12
F326.19929695129395
sg13
F326.9141891002655
sg14
F326.46570897102356
sg15
g444
sg20
g445
sg22
I4
sg23
I1
sa(dp474
g4
I00
sg5
F15
sg6
(lp475
g455
a(F770
F708
tp476
a(F512
F358
tp477
a(F94
F616
tp478
a(F276
F590
tp479
a(F1063
F201
tp480
a(F1006
F820
tp481
a(F1123
F539
tp482
a(F380
F737
tp483
a(F669
F862
tp484
a(F99
F95
tp485
a(F511
F131
tp486
a(F904
F258
tp487
a(F294
F389
tp488
a(F203
F788
tp489
a(F768
F101
tp490
asg9
I0
sg10
(lp491
g477
asg12
F326.94929909706116
sg13
F327.22215008735657
sg14
F326.99913191795349
sg15
g444
sg20
g445
sg22
I4
sg23
I16
sa(dp492
g4
I00
sg5
F59
sg6
(lp493
(F978
F577
tp494
a(F702
F490
tp495
a(F817
F348
tp496
ag486
a(F533
F770
tp497
a(F325
F671
tp498
ag490
a(F325
F480
tp499
ag452
a(F120
F201
tp500
a(F956
F735
tp501
a(F1056
F310
tp502
ag456
a(F1126
F461
tp503
a(F559
F562
tp504
ag439
asg9
I0
sg10
(lp505
g504
asg12
F327.2493040561676
sg13
F327.76117205619812
sg14
F327.33245706558228
sg15
g444
sg20
g445
sg22
I4
sg23
I16
sa(dp506
g4
I01
sg5
F186
sg6
(lp507
sg9
I0
sg10
(lp508
(F416.4000244140625
F128.4000244140625
tp509
asg12
F327.78264904022217
sg13
F329.14232611656189
sg14
F327.99924206733704
sg15
g444
sg20
g445
sg22
I4
sg23
I0
sa(dp510
g4
I00
sg5
F148
sg6
(lp511
g490
a(F977
F495
tp512
a(F285
F787
tp513
ag497
asg9
I0
sg10
(lp514
g490
asg12
F329.16602301597595
sg13
F329.59196805953979
sg14
F329.33240008354187
sg15
g444
sg20
g445
sg22
I4
sg23
I4
sa(dp515
g4
I00
sg5
F242
sg6
(lp516
(F209
F534
tp517
asg9
I0
sg10
(lp518
g517
asg12
F329.61601400375366
sg13
F330.43423199653625
sg14
F329.88239002227783
sg15
g444
sg20
g445
sg22
I4
sg23
I1
sa(dp519
g4
I00
sg5
F98
sg6
(lp520
g452
a(F836
F454
tp521
a(F900
F609
tp522
a(F912
F133
tp523
a(F430
F839
tp524
a(F253
F275
tp525
a(F679
F96
tp526
ag454
ag455
a(F759
F260
tp527
a(F1092
F768
tp528
a(F578
F309
tp529
ag489
a(F379
F91
tp530
a(F995
F263
tp531
ag503
asg9
I0
sg10
(lp532
g527
asg12
F330.46602606773376
sg13
F330.91371393203735
sg14
F330.58255505561829
sg15
g444
sg20
g445
sg22
I4
sg23
I16
sa(dp533
g4
I01
sg5
F66
sg6
(lp534
sg9
I0
sg10
(lp535
(F669.20001220703125
F329.9000244140625
tp536
asg12
F330.94936800003052
sg13
F331.05757594108582
sg14
F331.04927706718445
sg15
g444
sg20
g445
sg22
I4
sg23
I0
sa(dp537
g4
I01
sg5
F51
sg6
(lp538
sg9
I0
sg10
(lp539
(F1070.199951171875
F384.0999755859375
tp540
asg12
F331.08267998695374
sg13
F331.78639507293701
sg14
F331.16595411300659
sg15
g444
sg20
g445
sg22
I4
sg23
I0
sa(dp541
g4
I00
sg5
F238
sg6
(lp542
g522
a(F880
F765
tp543
a(F591
F144
tp544
a(F493
F466
tp545
asg9
I0
sg10
(lp546
g522
asg12
F331.81604290008545
sg13
F332.36731791496277
sg14
F332.0824670791626
sg15
g444
sg20
g445
sg22
I4
sg23
I4
sa(dp547
g4
I00
sg5
F306
sg6
(lp548
g497
a(F1187
F700
tp549
asg9
I0
sg10
(lp550
g497
asg12
F332.39938998222351
sg13
F332.99570608139038
sg14
F332.73245692253113
sg15
g444
sg20
g445
sg22
I4
sg23
I2
sa(dp551
g4
I00
sg5
F349
sg6
(lp552
(F180
F606
tp553
asg9
I0
sg10
(lp554
g553
asg12
F333.04941010475159
sg13
F333.66010308265686
sg14
F333.43246006965637
sg15
g444
sg20
g445
sg22
I4
sg23
I1
sa(dp555
g4
I00
sg5
F398
sg6
(lp556
g498
ag456
ag452
ag523
ag488
ag531
ag529
ag458
asg9
I0
sg10
(lp557
g529
asg12
F333.68271589279175
sg13
F334.43185806274414
sg14
F334.09920501708984
sg15
g444
sg20
g445
sg22
I4
sg23
I8
sa(dp558
g4
I00
sg5
F174
sg6
(lp559
g523
a(F1064
F394
tp560
a(F682
F178
tp561
a(F379
F286
tp562
a(F415
F466
tp563
a(F606
F496
tp564
ag524
ag498
ag441
a(F167
F268
tp565
ag484
ag496
ag452
ag459
a(F259
F142
tp566
ag440
asg9
I0
sg10
(lp567
g564
asg12
F334.46608710289001
sg13
F334.92367196083069
sg14
F334.66591095924377
sg15
g444
sg20
g445
sg22
I4
sg23
I16
sa(dp568
g4
I00
sg5
F286
sg6
(lp569
g563
asg9
I0
sg10
(lp570
g563
asg12
F334.94941902160645
sg13
F335.51175093650818
sg14
F335.26580691337585
sg15
g444
sg20
g445
sg22
I4
sg23
I1
sa(dp571
g4
I00
sg5
F716
sg6
(lp572
g524
ag452
ag523
ag531
a(F1146
F326
tp573
ag500
a(F565
F223
tp574
a(F818
F865
tp575
a(F237
F458
tp576
a(F1033
F632
tp577
ag530
ag489
ag496
ag498
ag526
ag478
asg9
I0
sg10
(lp578
g496
asg12
F335.53277111053467
sg13
F336.66568303108215
sg14
F336.28264689445496
sg15
g444
sg20
g445
sg22
I4
sg23
I16
sa(dp579
g4
I00
sg5
F43
sg6
(lp580
g459
ag502
a(F92
F534
tp581
ag455
asg9
I0
sg10
(lp582
g502
asg12
F336.69948697090149
sg13
F337.00554990768433
sg14
F336.76582908630371
sg15
g444
sg20
g445
sg22
I4
sg23
I4
sa(dp583
g4
I00
sg5
F367
sg6
(lp584
g476
asg9
I0
sg10
(lp585
g476
asg12
F337.03279590606689
sg13
F337.68749904632568
sg14
F337.43248701095581
sg15
g444
sg20
g445
sg22
I4
sg23
I1
sa(dp586
g4
I00
sg5
F146
sg6
(lp587
g452
asg9
I0
sg10
(lp588
g452
asg12
F337.71613812446594
sg13
F338.32780408859253
sg14
F337.88255405426025
sg15
g444
sg20
g445
sg22
I4
sg23
I1
sa(dp589
g4
I00
sg5
F39
sg6
(lp590
g523
ag545
asg9
I0
sg10
(lp591
g545
asg12
F338.34948897361755
sg13
F338.71969890594482
sg14
F338.41587805747986
sg15
g444
sg20
g445
sg22
I4
sg23
I2
sa(dp592
g4
I00
sg5
F67
sg6
(lp593
g481
a(F128
F339
tp594
a(F380
F207
tp595
ag464
asg9
I0
sg10
(lp596
g595
asg12
F338.74948692321777
sg13
F339.13919806480408
sg14
F338.84923505783081
sg15
g444
sg20
g445
sg22
I4
sg23
I4
sa(dp597
g4
I00
sg5
F508
sg6
(lp598
g526
ag456
a(F1170
F247
tp599
a(F1004
F121
tp600
ag577
ag487
ag560
ag481
asg9
I0
sg10
(lp601
g560
asg12
F339.16614198684692
sg13
F340.13930606842041
sg14
F339.69931411743164
sg15
g444
sg20
g445
sg22
I4
sg23
I8
sa(dp602
g4
I00
sg5
F932
sg6
(lp603
g523
ag459
ag486
ag488
ag478
ag565
ag599
ag561
asg9
I0
sg10
(lp604
g459
asg12
F340.16619610786438
sg13
F341.31365489959717
sg14
F341.13269305229187
sg15
g444
sg20
g445
sg22
I4
sg23
I8
saa(dp605
g153
(lp606
(F120
F843
tp607
asg156
I01
sg157
S'1'
sg158
(lp608
(F247
F516
tp609
asa(lp610
(dp611
g4
I00
sg5
F776
sg6
(lp612
(F1033
F462
tp613
a(F504
F724
tp614
asg9
I0
sg10
(lp615
g613
asg12
F344.33288192749023
sg13
F345.32159900665283
sg14
F345.13261103630066
sg15
g16
(g17
(S'S13'
I0
I1
tRp616
(I3
S'|'
NNNI13
I1
I0
tbS'image_161.bmp'
tRp617
sg20
(F1180
F255
tp618
sg22
I5
sg23
I2
sa(dp619
g4
I00
sg5
F376
sg6
(lp620
(F1182
F621
tp621
a(F1168
F167
tp622
a(F337
F454
tp623
a(F532
F802
tp624
a(F560
F487
tp625
a(F824
F821
tp626
a(F876
F298
tp627
a(F767
F488
tp628
a(F422
F673
tp629
a(F248
F215
tp630
a(F703
F103
tp631
a(F164
F459
tp632
a(F227
F786
tp633
a(F1159
F344
tp634
a(F877
F131
tp635
a(F418
F304
tp636
asg9
I0
sg10
(lp637
g628
asg12
F345.34960007667542
sg13
F345.93154907226562
sg14
F345.74939298629761
sg15
g617
sg20
g618
sg22
I5
sg23
I16
sa(dp638
g4
I00
sg5
F14
sg6
(lp639
(F610
F837
tp640
a(F995
F866
tp641
asg9
I0
sg10
(lp642
g640
asg12
F345.96624803543091
sg13
F346.4976589679718
sg14
F345.99929189682007
sg15
g617
sg20
g618
sg22
I5
sg23
I2
sa(dp643
g4
I00
sg5
F223
sg6
(lp644
(F275
F109
tp645
a(F314
F709
tp646
asg9
I0
sg10
(lp647
g646
asg12
F346.53296399116516
sg13
F347.0075409412384
sg14
F346.78268194198608
sg15
g617
sg20
g618
sg22
I5
sg23
I2
sa(dp648
g4
I00
sg5
F12
sg6
(lp649
(F967
F372
tp650
asg9
I0
sg10
(lp651
g650
asg12
F347.03294801712036
sg13
F347.28183007240295
sg14
F347.06597805023193
sg15
g617
sg20
g618
sg22
I5
sg23
I1
sa(dp652
g4
I00
sg5
F708
sg6
(lp653
(F122
F339
tp654
ag614
a(F998
F605
tp655
a(F853
F516
tp656
asg9
I0
sg10
(lp657
g656
asg12
F347.31627607345581
sg13
F348.23336791992188
sg14
F348.04932808876038
sg15
g617
sg20
g618
sg22
I5
sg23
I4
sa(dp658
g4
I00
sg5
F48
sg6
(lp659
(F974
F143
tp660
a(F776
F738
tp661
asg9
I0
sg10
(lp662
g661
asg12
F348.26630401611328
sg13
F348.60584497451782
sg14
F348.33269500732422
sg15
g617
sg20
g618
sg22
I5
sg23
I2
sa(dp663
g4
I00
sg5
F315
sg6
(lp664
(F135
F843
tp665
a(F438
F528
tp666
a(F924
F673
tp667
ag645
a(F240
F517
tp668
a(F352
F367
tp669
a(F1128
F419
tp670
a(F793
F413
tp671
ag660
a(F645
F568
tp672
a(F950
F473
tp673
a(F415
F824
tp674
a(F725
F218
tp675
a(F181
F288
tp676
a(F618
F376
tp677
ag622
asg9
I0
sg10
(lp678
g672
asg12
F348.63297700881958
sg13
F349.38160395622253
sg14
F348.98278903961182
sg15
g617
sg20
g618
sg22
I5
sg23
I16
sa(dp679
g4
I00
sg5
F245
sg6
(lp680
(F734
F833
tp681
ag670
ag671
a(F333
F574
tp682
ag655
ag674
a(F113
F192
tp683
a(F116
F719
tp684
asg9
I0
sg10
(lp685
g682
asg12
F349.41631102561951
sg13
F349.90165209770203
sg14
F349.68271493911743
sg15
g617
sg20
g618
sg22
I5
sg23
I8
sa(dp686
g4
I00
sg5
F303
sg6
(lp687
(F581
F703
tp688
a(F529
F110
tp689
a(F521
F560
tp690
a(F91
F268
tp691
asg9
I0
sg10
(lp692
g690
asg12
F349.93298697471619
sg13
F350.63344192504883
sg14
F350.26604795455933
sg15
g617
sg20
g618
sg22
I5
sg23
I4
sa(dp693
g4
I00
sg5
F37
sg6
(lp694
g674
ag665
ag630
a(F832
F670
tp695
a(F1069
F788
tp696
a(F211
F620
tp697
a(F443
F407
tp698
ag671
ag691
ag673
a(F806
F184
tp699
a(F202
F380
tp700
a(F1060
F171
tp701
a(F1096
F583
tp702
a(F633
F288
tp703
ag688
asg9
I0
sg10
(lp704
g700
asg12
F350.66633605957031
sg13
F350.80519509315491
sg14
F350.73280191421509
sg15
g617
sg20
g618
sg22
I5
sg23
I16
sa(dp705
g4
I00
sg5
F123
sg6
(lp706
(F746
F632
tp707
ag655
asg9
I0
sg10
(lp708
g707
asg12
F350.83301901817322
sg13
F351.80148696899414
sg14
F350.98272299766541
sg15
g617
sg20
g618
sg22
I5
sg23
I2
sa(dp709
g4
I00
sg5
F396
sg6
(lp710
g626
a(F496
F182
tp711
a(F1169
F714
tp712
ag614
a(F326
F849
tp713
ag670
ag668
ag666
ag669
a(F686
F472
tp714
ag676
ag673
a(F90
F413
tp715
a(F167
F110
tp716
ag665
a(F782
F110
tp717
asg9
I0
sg10
(lp718
g666
asg12
F351.83303093910217
sg13
F352.43150401115417
sg14
F352.24945402145386
sg15
g617
sg20
g618
sg22
I5
sg23
I16
sa(dp719
g4
I00
sg5
F0
sg6
(lp720
g717
ag688
ag665
ag621
a(F871
F406
tp721
ag660
a(F131
F608
tp722
ag674
asg9
I0
sg10
(lp723
g674
asg12
F352.46639108657837
sg13
F352.64537596702576
sg14
F352.49943089485168
sg15
g617
sg20
g618
sg22
I5
sg23
I8
sa(dp724
g4
I00
sg5
F152
sg6
(lp725
(F533
F639
tp726
asg9
I0
sg10
(lp727
g726
asg12
F352.66634297370911
sg13
F353.07558012008667
sg14
F352.84939193725586
sg15
g617
sg20
g618
sg22
I5
sg23
I1
sa(dp728
g4
I00
sg5
F606
sg6
(lp729
(F271
F313
tp730
ag714
ag645
ag675
asg9
I0
sg10
(lp731
g730
asg12
F353.09968900680542
sg13
F354.04341006278992
sg14
F353.73278999328613
sg15
g617
sg20
g618
sg22
I5
sg23
I4
sa(dp732
g4
I00
sg5
F430
sg6
(lp733
(F1042
F693
tp734
a(F1060
F375
tp735
asg9
I0
sg10
(lp736
g735
asg12
F354.06641006469727
sg13
F354.82325601577759
sg14
F354.51610207557678
sg15
g617
sg20
g618
sg22
I5
sg23
I2
sa(dp737
g4
I00
sg5
F79
sg6
(lp738
g627
ag630
ag698
a(F402
F117
tp739
ag629
ag668
ag684
ag660
asg9
I0
sg10
(lp740
g698
asg12
F354.84971904754639
sg13
F355.12134003639221
sg14
F354.94952797889709
sg15
g617
sg20
g618
sg22
I5
sg23
I8
sa(dp741
g4
I00
sg5
F84
sg6
(lp742
g629
ag626
ag622
ag668
asg9
I0
sg10
(lp743
g629
asg12
F355.14971399307251
sg13
F355.55561900138855
sg14
F355.26614189147949
sg15
g617
sg20
g618
sg22
I5
sg23
I4
sa(dp744
g4
I00
sg5
F43
sg6
(lp745
g683
ag625
asg9
I0
sg10
(lp746
g625
asg12
F355.58306312561035
sg13
F355.84363198280334
sg14
F355.64948391914368
sg15
g617
sg20
g618
sg22
I5
sg23
I2
sa(dp747
g4
I00
sg5
F152
sg6
(lp748
g721
ag654
asg9
I0
sg10
(lp749
g721
asg12
F355.86641407012939
sg13
F356.24169111251831
sg14
F356.04945206642151
sg15
g617
sg20
g618
sg22
I5
sg23
I2
sa(dp750
g4
I00
sg5
F361
sg6
(lp751
(F1036
F95
tp752
ag623
a(F544
F272
tp753
ag713
asg9
I0
sg10
(lp754
g753
asg12
F356.26641607284546
sg13
F356.90735197067261
sg14
F356.649493932724
sg15
g617
sg20
g618
sg22
I5
sg23
I4
sa(dp755
g4
I00
sg5
F134
sg6
(lp756
g655
ag717
ag623
ag622
asg9
I0
sg10
(lp757
g623
asg12
F356.93306803703308
sg13
F357.38944697380066
sg14
F357.09953689575195
sg15
g617
sg20
g618
sg22
I5
sg23
I4
sa(dp758
g4
I00
sg5
F275
sg6
(lp759
g670
ag621
ag688
ag627
ag691
ag701
ag677
ag716
asg9
I0
sg10
(lp760
g677
asg12
F357.41638994216919
sg13
F357.92316699028015
sg14
F357.71621108055115
sg15
g617
sg20
g618
sg22
I5
sg23
I8
sa(dp761
g4
I00
sg5
F603
sg6
(lp762
g669
ag614
ag622
ag676
ag641
a(F684
F742
tp763
ag668
ag660
ag665
ag695
ag673
ag675
ag627
ag716
ag702
ag634
asg9
I0
sg10
(lp764
g669
asg12
F357.94976997375488
sg13
F358.78376412391663
sg14
F358.58290004730225
sg15
g617
sg20
g618
sg22
I5
sg23
I16
saa(dp765
g153
(lp766
(F890
F742
tp767
asg156
I01
sg157
S'1'
sg158
(lp768
(F418
F797
tp769
asa(lp770
(dp771
g4
I00
sg5
F1394
sg6
(lp772
(F1154
F399
tp773
a(F458
F587
tp774
asg9
I0
sg10
(lp775
g774
asg12
F361.23313903808594
sg13
F362.90401101112366
sg14
F362.64955711364746
sg15
g16
(g17
(S'S13'
I0
I1
tRp776
(I3
S'|'
NNNI13
I1
I0
tbS'image_170.bmp'
tRp777
sg20
(F649
F697
tp778
sg22
I6
sg23
I2
sa(dp779
g4
I00
sg5
F147
sg6
(lp780
(F1007
F746
tp781
asg9
I0
sg10
(lp782
g781
asg12
F362.93317699432373
sg13
F363.40948510169983
sg14
F363.09953999519348
sg15
g777
sg20
g778
sg22
I6
sg23
I1
sa(dp783
g4
I00
sg5
F32
sg6
(lp784
(F244
F657
tp785
a(F515
F320
tp786
a(F765
F208
tp787
a(F545
F556
tp788
asg9
I0
sg10
(lp789
g788
asg12
F363.43320298194885
sg13
F363.71511793136597
sg14
F363.48292303085327
sg15
g777
sg20
g778
sg22
I6
sg23
I4
sa(dp790
g4
I00
sg5
F137
sg6
(lp791
(F937
F525
tp792
a(F305
F498
tp793
a(F297
F844
tp794
ag787
a(F785
F666
tp795
a(F1181
F154
tp796
a(F471
F385
tp797
a(F1186
F704
tp798
asg9
I0
sg10
(lp799
g792
asg12
F363.74985003471375
sg13
F364.25336694717407
sg14
F363.91626191139221
sg15
g777
sg20
g778
sg22
I6
sg23
I8
sa(dp800
g4
I00
sg5
F137
sg6
(lp801
(F527
F771
tp802
asg9
I0
sg10
(lp803
g802
asg12
F364.28320097923279
sg13
F364.69527292251587
sg14
F364.44956493377686
sg15
g777
sg20
g778
sg22
I6
sg23
I1
sa(dp804
g4
I00
sg5
F616
sg6
(lp805
(F96
F304
tp806
asg9
I0
sg10
(lp807
g806
asg12
F364.71654009819031
sg13
F365.76937794685364
sg14
F365.36624193191528
sg15
g777
sg20
g778
sg22
I6
sg23
I1
sa(dp808
g4
I00
sg5
F255
sg6
(lp809
(F578
F117
tp810
a(F367
F177
tp811
a(F572
F648
tp812
ag795
a(F287
F722
tp813
a(F172
F463
tp814
a(F193
F101
tp815
a(F1172
F300
tp816
asg9
I0
sg10
(lp817
g811
asg12
F365.79989290237427
sg13
F366.27563691139221
sg14
F366.08299708366394
sg15
g777
sg20
g778
sg22
I6
sg23
I8
sa(dp818
g4
I00
sg5
F257
sg6
(lp819
(F696
F867
tp820
a(F170
F337
tp821
a(F232
F581
tp822
a(F668
F141
tp823
asg9
I0
sg10
(lp824
g823
asg12
F366.29989099502563
sg13
F366.78132104873657
sg14
F366.58297395706177
sg15
g777
sg20
g778
sg22
I6
sg23
I4
sa(dp825
g4
I00
sg5
F236
sg6
(lp826
(F405
F291
tp827
ag820
a(F465
F506
tp828
a(F1019
F252
tp829
a(F263
F414
tp830
ag795
a(F1067
F673
tp831
ag796
asg9
I0
sg10
(lp832
g829
asg12
F366.81655502319336
sg13
F367.32965397834778
sg14
F367.08297896385193
sg15
g777
sg20
g778
sg22
I6
sg23
I8
sa(dp833
g4
I00
sg5
F209
sg6
(lp834
(F134
F534
tp835
a(F1008
F605
tp836
asg9
I0
sg10
(lp837
g836
asg12
F367.36662292480469
sg13
F367.8290159702301
sg14
F367.59959197044373
sg15
g777
sg20
g778
sg22
I6
sg23
I2
sa(dp838
g4
I00
sg5
F1199
sg6
(lp839
g813
ag786
a(F1111
F106
tp840
ag815
asg9
I0
sg10
(lp841
g786
asg12
F367.84992098808289
sg13
F369.32523393630981
sg14
F369.08300590515137
sg15
g777
sg20
g778
sg22
I6
sg23
I4
sa(dp842
g4
I01
sg5
F185
sg6
(lp843
sg9
I0
sg10
(lp844
(F337.0999755859375
F101.0999755859375
tp845
asg12
F369.34993505477905
sg13
F369.62937092781067
sg14
F369.56650805473328
sg15
g777
sg20
g778
sg22
I6
sg23
I0
sa(dp846
g4
I01
sg5
F118
sg6
(lp847
sg9
I0
sg10
(lp848
(F488.70001220703125
F395.20001220703125
tp849
asg12
F369.64991807937622
sg13
F369.80111289024353
sg14
F369.79984593391418
sg15
g777
sg20
g778
sg22
I6
sg23
I0
sa(dp850
g4
I00
sg5
F679
sg6
(lp851
(F1025
F456
tp852
a(F375
F633
tp853
a(F222
F823
tp854
a(F307
F270
tp855
ag795
ag815
a(F760
F296
tp856
ag831
ag812
a(F572
F248
tp857
a(F979
F853
tp858
a(F484
F837
tp859
a(F780
F866
tp860
ag835
a(F714
F484
tp861
a(F1189
F814
tp862
asg9
I0
sg10
(lp863
g852
asg12
F369.83372592926025
sg13
F370.72286701202393
sg14
F370.53304100036621
sg15
g777
sg20
g778
sg22
I6
sg23
I16
sa(dp864
g4
I00
sg5
F672
sg6
(lp865
(F1110
F857
tp866
asg9
I0
sg10
(lp867
g866
asg12
F370.74994492530823
sg13
F372.06944394111633
sg14
F371.44968700408936
sg15
g777
sg20
g778
sg22
I6
sg23
I1
saa(dp868
g153
(lp869
(F659
F258
tp870
asg156
I01
sg157
S'1'
sg158
(lp871
(F482
F145
tp872
asa(lp873
(dp874
g4
I01
sg5
F266
sg6
(lp875
sg9
I0
sg10
(lp876
(F537.20001220703125
F369.70001220703125
tp877
asg12
F374.80002093315125
sg13
F375.28957509994507
sg14
F375.09991908073425
sg15
g16
(g17
(S'S13'
I0
I1
tRp878
(I3
S'|'
NNNI13
I1
I0
tbS'image_172.bmp'
tRp879
sg20
(F345
F377
tp880
sg22
I7
sg23
I0
sa(dp881
g4
I00
sg5
F22
sg6
(lp882
(F849
F176
tp883
a(F269
F766
tp884
asg9
I0
sg10
(lp885
g883
asg12
F375.31713795661926
sg13
F375.74334001541138
sg14
F375.36645197868347
sg15
g879
sg20
g880
sg22
I7
sg23
I2
sa(dp886
g4
I00
sg5
F145
sg6
(lp887
(F1079
F869
tp888
a(F624
F497
tp889
a(F844
F671
tp890
a(F875
F451
tp891
asg9
I0
sg10
(lp892
g891
asg12
F375.76667809486389
sg13
F376.14329409599304
sg14
F375.93305897712708
sg15
g879
sg20
g880
sg22
I7
sg23
I4
sa(dp893
g4
I00
sg5
F333
sg6
(lp894
g890
asg9
I0
sg10
(lp895
g890
asg12
F376.16669297218323
sg13
F376.75366997718811
sg14
F376.53307390213013
sg15
g879
sg20
g880
sg22
I7
sg23
I1
sa(dp896
g4
I01
sg5
F73
sg6
(lp897
sg9
I0
sg10
(lp898
(F679.5999755859375
F335.29998779296875
tp899
asg12
F376.78337001800537
sg13
F377.07242894172668
sg14
F376.88328504562378
sg15
g879
sg20
g880
sg22
I7
sg23
I0
sa(dp900
g4
I00
sg5
F18
sg6
(lp901
(F753
F634
tp902
a(F90
F102
tp903
a(F1138
F546
tp904
a(F625
F850
tp905
asg9
I0
sg10
(lp906
g902
asg12
F377.10003399848938
sg13
F377.22081708908081
sg14
F377.14977812767029
sg15
g879
sg20
g880
sg22
I7
sg23
I4
sa(dp907
g4
I00
sg5
F7
sg6
(lp908
(F309
F689
tp909
a(F521
F224
tp910
asg9
I0
sg10
(lp911
g909
asg12
F377.25005006790161
sg13
F377.56499099731445
sg14
F377.28311610221863
sg15
g879
sg20
g880
sg22
I7
sg23
I2
sa(dp912
g4
I00
sg5
F19
sg6
(lp913
(F653
F701
tp914
a(F433
F204
tp915
a(F485
F371
tp916
a(F302
F106
tp917
a(F126
F764
tp918
a(F636
F244
tp919
a(F1179
F203
tp920
a(F814
F864
tp921
asg9
I0
sg10
(lp922
g916
asg12
F377.60007095336914
sg13
F377.92745208740234
sg14
F377.64986705780029
sg15
g879
sg20
g880
sg22
I7
sg23
I8
sa(dp923
g4
I00
sg5
F17
sg6
(lp924
(F893
F607
tp925
ag884
a(F965
F245
tp926
ag917
asg9
I0
sg10
(lp927
g884
asg12
F377.9500470161438
sg13
F378.36906790733337
sg14
F377.99983406066895
sg15
g879
sg20
g880
sg22
I7
sg23
I4
sa(dp928
g4
I00
sg5
F332
sg6
(lp929
(F650
F616
tp930
asg9
I0
sg10
(lp931
g930
asg12
F378.40007209777832
sg13
F378.94529008865356
sg14
F378.74978494644165
sg15
g879
sg20
g880
sg22
I7
sg23
I1
sa(dp932
g4
I00
sg5
F389
sg6
(lp933
(F1056
F254
tp934
a(F427
F865
tp935
a(F388
F673
tp936
a(F237
F213
tp937
asg9
I0
sg10
(lp938
g936
asg12
F378.96673512458801
sg13
F379.5930449962616
sg14
F379.38315606117249
sg15
g879
sg20
g880
sg22
I7
sg23
I4
sa(dp939
g4
I00
sg5
F134
sg6
(lp940
(F196
F607
tp941
a(F103
F203
tp942
asg9
I0
sg10
(lp943
g941
asg12
F379.61674499511719
sg13
F380.11511707305908
sg14
F379.78313589096069
sg15
g879
sg20
g880
sg22
I7
sg23
I2
sa(dp944
g4
I00
sg5
F100
sg6
(lp945
g918
asg9
I0
sg10
(lp946
g918
asg12
F380.15008091926575
sg13
F380.49312996864319
sg14
F380.28316211700439
sg15
g879
sg20
g880
sg22
I7
sg23
I1
sa(dp947
g4
I01
sg5
F72
sg6
(lp948
sg9
I0
sg10
(lp949
(F545.20001220703125
F205
tp950
asg12
F380.51680994033813
sg13
F381.29342007637024
sg14
F380.61667108535767
sg15
g879
sg20
g880
sg22
I7
sg23
I0
sa(dp951
g4
I00
sg5
F236
sg6
(lp952
(F408
F99
tp953
ag935
a(F118
F511
tp954
a(F166
F861
tp955
asg9
I0
sg10
(lp956
g953
asg12
F381.31679105758667
sg13
F382.04332590103149
sg14
F381.58318996429443
sg15
g879
sg20
g880
sg22
I7
sg23
I4
sa(dp957
g4
I00
sg5
F141
sg6
(lp958
(F776
F722
tp959
ag942
a(F1064
F494
tp960
a(F206
F376
tp961
ag925
a(F713
F227
tp962
a(F935
F121
tp963
ag920
a(F397
F787
tp964
a(F509
F648
tp965
a(F829
F383
tp966
ag955
a(F379
F464
tp967
a(F1147
F803
tp968
ag889
a(F215
F691
tp969
asg9
I0
sg10
(lp970
g889
asg12
F382.06678199768066
sg13
F382.33533501625061
sg14
F382.23326897621155
sg15
g879
sg20
g880
sg22
I7
sg23
I16
sa(dp971
g4
I00
sg5
F124
sg6
(lp972
(F511
F863
tp973
a(F976
F479
tp974
a(F277
F844
tp975
a(F903
F317
tp976
asg9
I0
sg10
(lp977
g974
asg12
F382.36680197715759
sg13
F383.33528304100037
sg14
F382.51649808883667
sg15
g879
sg20
g880
sg22
I7
sg23
I4
sa(dp978
g4
I01
sg5
F755
sg6
(lp979
sg9
I0
sg10
(lp980
(F682.20001220703125
F408.20001220703125
tp981
asg12
F383.3668041229248
sg13
F384.58987092971802
sg14
F384.15005397796631
sg15
g879
sg20
g880
sg22
I7
sg23
I0
sa(dp982
g4
I01
sg5
F123
sg6
(lp983
sg9
I0
sg10
(lp984
(F1033.9000244140625
F301.29998779296875
tp985
asg12
F384.61681008338928
sg13
F385.84849810600281
sg14
F384.76672601699829
sg15
g879
sg20
g880
sg22
I7
sg23
I0
sa(dp986
g4
I00
sg5
F18
sg6
(lp987
(F705
F853
tp988
asg9
I0
sg10
(lp989
g988
asg12
F385.88350200653076
sg13
F386.43942809104919
sg14
F385.93321299552917
sg15
g879
sg20
g880
sg22
I7
sg23
I1
sa(dp990
g4
I00
sg5
F391
sg6
(lp991
g935
ag967
ag965
a(F962
F381
tp992
a(F1170
F635
tp993
a(F1176
F474
tp994
ag955
ag954
asg9
I0
sg10
(lp995
g965
asg12
F386.46689891815186
sg13
F387.1233229637146
sg14
F386.88323497772217
sg15
g879
sg20
g880
sg22
I7
sg23
I8
sa(dp996
g4
I00
sg5
F405
sg6
(lp997
g962
a(F1032
F423
tp998
a(F495
F450
tp999
ag910
ag954
ag955
ag935
ag937
asg9
I0
sg10
(lp1000
g999
asg12
F387.15017795562744
sg13
F387.80519795417786
sg14
F387.58331203460693
sg15
g879
sg20
g880
sg22
I7
sg23
I8
sa(dp1001
g4
I00
sg5
F104
sg6
(lp1002
g961
asg9
I0
sg10
(lp1003
g961
asg12
F387.83356189727783
sg13
F388.29322504997253
sg14
F387.96657299995422
sg15
g879
sg20
g880
sg22
I7
sg23
I1
sa(dp1004
g4
I00
sg5
F330
sg6
(lp1005
(F569
F415
tp1006
ag926
ag968
ag935
a(F307
F517
tp1007
a(F577
F728
tp1008
ag921
ag942
asg9
I0
sg10
(lp1009
g1006
asg12
F388.31686496734619
sg13
F388.84875702857971
sg14
F388.66662693023682
sg15
g879
sg20
g880
sg22
I7
sg23
I8
sa(dp1010
g4
I01
sg5
F626
sg6
(lp1011
sg9
I0
sg10
(lp1012
(F744.9000244140625
F533.10000610351562
tp1013
asg12
F388.88356590270996
sg13
F389.99366211891174
sg14
F389.53347206115723
sg15
g879
sg20
g880
sg22
I7
sg23
I0
sa(dp1014
g4
I00
sg5
F845
sg6
(lp1015
(F1091
F636
tp1016
ag934
a(F1114
F421
tp1017
ag973
a(F714
F320
tp1018
ag955
a(F438
F592
tp1019
ag969
ag954
a(F279
F421
tp1020
ag903
ag910
a(F718
F775
tp1021
ag992
a(F148
F280
tp1022
a(F355
F171
tp1023
asg9
I0
sg10
(lp1024
g992
asg12
F390.01690411567688
sg13
F391.2929470539093
sg14
F390.88339400291443
sg15
g879
sg20
g880
sg22
I7
sg23
I16
saa(dp1025
g153
(lp1026
(F1080
F205
tp1027
asg156
I01
sg157
S'1'
sg158
(lp1028
(F784
F748
tp1029
asa(lp1030
(dp1031
g4
I00
sg5
F1879
sg6
(lp1032
(F711
F761
tp1033
asg9
I0
sg10
(lp1034
g1033
asg12
F393.83364295959473
sg13
F395.99519300460815
sg14
F395.73339891433716
sg15
g16
(g17
(S'S13'
I0
I1
tRp1035
(I3
S'|'
NNNI13
I1
I0
tbS'image_154.bmp'
tRp1036
sg20
(F961
F280
tp1037
sg22
I8
sg23
I1
sa(dp1038
g4
I01
sg5
F256
sg6
(lp1039
sg9
I0
sg10
(lp1040
(F1080.300048828125
F567.70001220703125
tp1041
asg12
F396.01697707176208
sg13
F396.74114203453064
sg14
F396.30023097991943
sg15
g1036
sg20
g1037
sg22
I8
sg23
I0
sa(dp1042
g4
I00
sg5
F87
sg6
(lp1043
(F224
F412
tp1044
a(F1000
F787
tp1045
a(F840
F175
tp1046
a(F622
F225
tp1047
a(F192
F186
tp1048
a(F413
F219
tp1049
a(F766
F625
tp1050
a(F702
F843
tp1051
a(F436
F635
tp1052
a(F915
F372
tp1053
a(F430
F857
tp1054
a(F1136
F316
tp1055
a(F541
F444
tp1056
a(F203
F655
tp1057
a(F755
F441
tp1058
a(F1145
F97
tp1059
asg9
I0
sg10
(lp1060
g1053
asg12
F396.76699995994568
sg13
F397.35249590873718
sg14
F396.88349890708923
sg15
g1036
sg20
g1037
sg22
I8
sg23
I16
sa(dp1061
g4
I01
sg5
F74
sg6
(lp1062
sg9
I0
sg10
(lp1063
(F326.29998779296875
F440
tp1064
asg12
F397.38371109962463
sg13
F398.00711297988892
sg14
F397.48358511924744
sg15
g1036
sg20
g1037
sg22
I8
sg23
I0
sa(dp1065
g4
I00
sg5
F17
sg6
(lp1066
(F106
F125
tp1067
a(F1099
F501
tp1068
asg9
I0
sg10
(lp1069
g1068
asg12
F398.03368902206421
sg13
F398.69518303871155
sg14
F398.08343505859375
sg15
g1036
sg20
g1037
sg22
I8
sg23
I2
sa(dp1070
g4
I00
sg5
F238
sg6
(lp1071
(F332
F229
tp1072
ag1057
a(F235
F835
tp1073
a(F1181
F719
tp1074
a(F363
F662
tp1075
a(F720
F115
tp1076
ag1056
a(F620
F744
tp1077
asg9
I0
sg10
(lp1078
g1056
asg12
F398.71701908111572
sg13
F399.38223004341125
sg14
F398.98345303535461
sg15
g1036
sg20
g1037
sg22
I8
sg23
I8
sa(dp1079
g4
I00
sg5
F523
sg6
(lp1080
(F431
F552
tp1081
ag1057
a(F750
F212
tp1082
a(F308
F366
tp1083
ag1048
ag1049
a(F917
F774
tp1084
a(F104
F386
tp1085
a(F821
F399
tp1086
a(F357
F806
tp1087
a(F1102
F653
tp1088
a(F1088
F388
tp1089
a(F581
F614
tp1090
a(F763
F702
tp1091
a(F922
F99
tp1092
ag1059
asg9
I0
sg10
(lp1093
g1090
asg12
F399.41707992553711
sg13
F399.96775102615356
sg14
F399.96688008308411
sg15
g1036
sg20
g1037
sg22
I8
sg23
I16
sa(dp1094
g4
I00
sg5
F306
sg6
(lp1095
(F736
F537
tp1096
a(F994
F357
tp1097
a(F116
F709
tp1098
ag1084
ag1083
a(F1150
F820
tp1099
a(F97
F259
tp1100
a(F995
F551
tp1101
asg9
I0
sg10
(lp1102
g1096
asg12
F400.00040411949158
sg13
F400.60073709487915
sg14
F400.33346891403198
sg15
g1036
sg20
g1037
sg22
I8
sg23
I8
sa(dp1103
g4
I01
sg5
F1006
sg6
(lp1104
sg9
I0
sg10
(lp1105
(F837.5999755859375
F558.10000610351562
tp1106
asg12
F400.63373208045959
sg13
F401.89690208435059
sg14
F401.66697311401367
sg15
g1036
sg20
g1037
sg22
I8
sg23
I0
sa(dp1107
g4
I00
sg5
F161
sg6
(lp1108
(F103
F625
tp1109
ag1082
a(F541
F731
tp1110
ag1048
a(F651
F349
tp1111
ag1074
a(F1059
F851
tp1112
a(F945
F175
tp1113
asg9
I0
sg10
(lp1114
g1074
asg12
F401.91705799102783
sg13
F402.40894389152527
sg14
F402.1001889705658
sg15
g1036
sg20
g1037
sg22
I8
sg23
I8
sa(dp1115
g4
I00
sg5
F565
sg6
(lp1116
(F1051
F297
tp1117
ag1101
ag1091
a(F992
F706
tp1118
a(F136
F466
tp1119
ag1046
a(F656
F526
tp1120
ag1048
a(F1061
F90
tp1121
ag1109
a(F445
F129
tp1122
a(F504
F832
tp1123
a(F482
F285
tp1124
a(F239
F758
tp1125
a(F628
F141
tp1126
a(F792
F860
tp1127
asg9
I0
sg10
(lp1128
g1118
asg12
F402.43376398086548
sg13
F403.03507804870605
sg14
F403.03361892700195
sg15
g1036
sg20
g1037
sg22
I8
sg23
I16
sa(dp1129
g4
I00
sg5
F569
sg6
(lp1130
(F938
F864
tp1131
ag1048
ag1097
ag1051
a(F535
F542
tp1132
ag1125
a(F813
F290
tp1133
ag1119
a(F827
F477
tp1134
ag1122
ag1111
ag1075
ag1054
ag1124
ag1110
a(F1129
F211
tp1135
asg9
I0
sg10
(lp1136
g1111
asg12
F403.06713104248047
sg13
F403.79656100273132
sg14
F403.66689991950989
sg15
g1036
sg20
g1037
sg22
I8
sg23
I16
sa(dp1137
g4
I00
sg5
F114
sg6
(lp1138
g1048
ag1073
a(F614
F866
tp1139
ag1044
ag1120
a(F939
F607
tp1140
ag1127
ag1124
asg9
I0
sg10
(lp1141
g1124
asg12
F403.81713199615479
sg13
F404.14898800849915
sg14
F403.9501678943634
sg15
g1036
sg20
g1037
sg22
I8
sg23
I8
sa(dp1142
g4
I00
sg5
F77
sg6
(lp1143
g1085
ag1067
asg9
I0
sg10
(lp1144
g1085
asg12
F404.18379592895508
sg13
F404.52873492240906
sg14
F404.2835099697113
sg15
g1036
sg20
g1037
sg22
I8
sg23
I2
sa(dp1145
g4
I00
sg5
F1006
sg6
(lp1146
g1049
ag1091
a(F581
F302
tp1147
ag1055
asg9
I0
sg10
(lp1148
g1147
asg12
F404.55045199394226
sg13
F405.78829908370972
sg14
F405.58355212211609
sg15
g1036
sg20
g1037
sg22
I8
sg23
I4
saa(dp1149
g153
(lp1150
(F111
F199
tp1151
asg156
I01
sg157
S'1'
sg158
(lp1152
(F464
F867
tp1153
asa(lp1154
(dp1155
g4
I00
sg5
F36
sg6
(lp1156
(F93
F483
tp1157
a(F499
F537
tp1158
a(F1178
F533
tp1159
a(F659
F531
tp1160
a(F1188
F121
tp1161
a(F351
F768
tp1162
a(F913
F622
tp1163
a(F1074
F693
tp1164
a(F679
F95
tp1165
a(F726
F308
tp1166
a(F234
F142
tp1167
a(F769
F802
tp1168
a(F275
F304
tp1169
a(F292
F483
tp1170
a(F1073
F338
tp1171
a(F1053
F865
tp1172
asg9
I0
sg10
(lp1173
g1160
asg12
F409.03385305404663
sg13
F409.7523500919342
sg14
F409.35031199455261
sg15
g16
(g17
(S'S13'
I0
I1
tRp1174
(I3
S'|'
NNNI13
I1
I0
tbS'image_168.bmp'
tRp1175
sg20
(F507
F186
tp1176
sg22
I9
sg23
I16
sa(dp1177
g4
I00
sg5
F294
sg6
(lp1178
(F944
F794
tp1179
a(F881
F417
tp1180
asg9
I0
sg10
(lp1181
g1180
asg12
F409.78387212753296
sg13
F410.2922580242157
sg14
F410.10026502609253
sg15
g1175
sg20
g1176
sg22
I9
sg23
I2
sa(dp1182
g4
I00
sg5
F607
sg6
(lp1183
g1164
a(F1166
F446
tp1184
a(F798
F242
tp1185
a(F1038
F229
tp1186
a(F578
F784
tp1187
a(F246
F740
tp1188
a(F598
F154
tp1189
ag1167
ag1179
a(F362
F417
tp1190
a(F821
F683
tp1191
a(F591
F586
tp1192
a(F670
F429
tp1193
a(F120
F620
tp1194
a(F357
F862
tp1195
a(F186
F443
tp1196
asg9
I0
sg10
(lp1197
g1192
asg12
F410.31722092628479
sg13
F411.1100869178772
sg14
F410.95033192634583
sg15
g1175
sg20
g1176
sg22
I9
sg23
I16
sa(dp1198
g4
I00
sg5
F511
sg6
(lp1199
(F605
F312
tp1200
a(F251
F863
tp1201
a(F1167
F358
tp1202
ag1187
a(F111
F240
tp1203
a(F1093
F781
tp1204
a(F850
F849
tp1205
a(F354
F113
tp1206
a(F1092
F579
tp1207
ag1169
ag1163
a(F909
F203
tp1208
a(F748
F437
tp1209
a(F199
F658
tp1210
a(F438
F359
tp1211
a(F348
F547
tp1212
asg9
I0
sg10
(lp1213
g1212
asg12
F411.13389611244202
sg13
F411.85290908813477
sg14
F411.66698312759399
sg15
g1175
sg20
g1176
sg22
I9
sg23
I16
sa(dp1214
g4
I00
sg5
F379
sg6
(lp1215
(F435
F759
tp1216
a(F930
F529
tp1217
ag1204
a(F168
F520
tp1218
ag1188
a(F1012
F145
tp1219
a(F571
F861
tp1220
ag1202
a(F98
F132
tp1221
ag1205
a(F539
F95
tp1222
ag1159
a(F514
F336
tp1223
ag1166
ag1206
a(F976
F331
tp1224
asg9
I0
sg10
(lp1225
g1218
asg12
F411.88391900062561
sg13
F412.5026171207428
sg14
F412.28368997573853
sg15
g1175
sg20
g1176
sg22
I9
sg23
I16
sa(dp1226
g4
I00
sg5
F1694
sg6
(lp1227
g1200
a(F970
F422
tp1228
asg9
I0
sg10
(lp1229
g1200
asg12
F412.53390502929688
sg13
F414.45065808296204
sg14
F414.25030994415283
sg15
g1175
sg20
g1176
sg22
I9
sg23
I2
sa(dp1230
g4
I00
sg5
F131
sg6
(lp1231
(F1110
F271
tp1232
a(F1159
F847
tp1233
asg9
I0
sg10
(lp1234
g1232
asg12
F414.48396110534668
sg13
F414.86246705055237
sg14
F414.63367700576782
sg15
g1175
sg20
g1176
sg22
I9
sg23
I2
sa(dp1235
g4
I00
sg5
F243
sg6
(lp1236
(F1027
F623
tp1237
a(F852
F765
tp1238
ag1221
ag1187
asg9
I0
sg10
(lp1239
g1238
asg12
F414.88392090797424
sg13
F415.3725380897522
sg14
F415.15034890174866
sg15
g1175
sg20
g1176
sg22
I9
sg23
I4
sa(dp1240
g4
I00
sg5
F706
sg6
(lp1241
g1171
asg9
I0
sg10
(lp1242
g1171
asg12
F415.40063405036926
sg13
F416.35472011566162
sg14
F416.1336829662323
sg15
g1175
sg20
g1176
sg22
I9
sg23
I1
sa(dp1243
g4
I00
sg5
F77
sg6
(lp1244
(F1179
F721
tp1245
ag1211
asg9
I0
sg10
(lp1246
g1211
asg12
F416.38396000862122
sg13
F416.66289091110229
sg14
F416.4836699962616
sg15
g1175
sg20
g1176
sg22
I9
sg23
I2
sa(dp1247
g4
I00
sg5
F806
sg6
(lp1248
(F633
F720
tp1249
asg9
I0
sg10
(lp1250
g1249
asg12
F416.68396091461182
sg13
F417.75502490997314
sg14
F417.51701807975769
sg15
g1175
sg20
g1176
sg22
I9
sg23
I1
sa(dp1251
g4
I00
sg5
F357
sg6
(lp1252
g1220
a(F825
F548
tp1253
ag1207
a(F102
F840
tp1254
asg9
I0
sg10
(lp1255
g1253
asg12
F417.78398990631104
sg13
F418.37259292602539
sg14
F418.16704893112183
sg15
g1175
sg20
g1176
sg22
I9
sg23
I4
sa(dp1256
g4
I00
sg5
F432
sg6
(lp1257
g1186
a(F969
F868
tp1258
a(F292
F218
tp1259
ag1195
asg9
I0
sg10
(lp1260
g1259
asg12
F418.4006679058075
sg13
F419.33273911476135
sg14
F418.86707997322083
sg15
g1175
sg20
g1176
sg22
I9
sg23
I4
saa(dp1261
g153
(lp1262
(F359
F821
tp1263
asg156
I00
sg157
S'1'
sg158
(lp1264
(F1114
F780
tp1265
asa(lp1266
(dp1267
g4
I00
sg5
F133
sg6
(lp1268
(F410
F779
tp1269
a(F548
F244
tp1270
a(F232
F717
tp1271
a(F1058
F577
tp1272
a(F873
F284
tp1273
a(F843
F764
tp1274
a(F295
F143
tp1275
a(F669
F577
tp1276
asg9
I0
sg10
(lp1277
g1274
asg12
F422.80224204063416
sg13
F423.6961989402771
sg14
F423.46717405319214
sg15
g16
(g17
(S'S13'
I0
I1
tRp1278
(I3
S'|'
NNNI13
I1
I0
tbS'image_159.bmp'
tRp1279
sg20
(F1086
F869
tp1280
sg22
I10
sg23
I8
sa(dp1281
g4
I00
sg5
F428
sg6
(lp1282
(F567
F418
tp1283
a(F187
F486
tp1284
asg9
I0
sg10
(lp1285
g1283
asg12
F423.71744608879089
sg13
F424.41283893585205
sg14
F424.16714406013489
sg15
g1279
sg20
g1280
sg22
I10
sg23
I2
sa(dp1286
g4
I00
sg5
F80
sg6
(lp1287
(F305
F394
tp1288
a(F1152
F666
tp1289
asg9
I0
sg10
(lp1290
g1288
asg12
F424.43449306488037
sg13
F424.74281692504883
sg14
F424.53379702568054
sg15
g1279
sg20
g1280
sg22
I10
sg23
I2
sa(dp1291
g4
I00
sg5
F166
sg6
(lp1292
(F863
F618
tp1293
a(F341
F559
tp1294
a(F716
F185
tp1295
a(F975
F96
tp1296
asg9
I0
sg10
(lp1297
g1293
asg12
F424.76740598678589
sg13
F425.26054310798645
sg14
F424.96719408035278
sg15
g1279
sg20
g1280
sg22
I10
sg23
I4
sa(dp1298
g4
I00
sg5
F370
sg6
(lp1299
(F243
F815
tp1300
a(F881
F454
tp1301
a(F612
F725
tp1302
a(F853
F100
tp1303
asg9
I0
sg10
(lp1304
g1301
asg12
F425.28410196304321
sg13
F425.90232610702515
sg14
F425.6838231086731
sg15
g1279
sg20
g1280
sg22
I10
sg23
I4
sa(dp1305
g4
I00
sg5
F252
sg6
(lp1306
(F1010
F170
tp1307
a(F253
F526
tp1308
asg9
I0
sg10
(lp1309
g1308
asg12
F425.93410706520081
sg13
F426.70685911178589
sg14
F426.21718001365662
sg15
g1279
sg20
g1280
sg22
I10
sg23
I2
sa(dp1310
g4
I00
sg5
F161
sg6
(lp1311
(F345
F736
tp1312
a(F724
F101
tp1313
ag1289
a(F139
F737
tp1314
asg9
I0
sg10
(lp1315
g1313
asg12
F426.73412704467773
sg13
F427.32420492172241
sg14
F426.91717791557312
sg15
g1279
sg20
g1280
sg22
I10
sg23
I4
sa(dp1316
g4
I00
sg5
F81
sg6
(lp1317
(F375
F485
tp1318
ag1312
asg9
I0
sg10
(lp1319
g1318
asg12
F427.35081100463867
sg13
F427.77861094474792
sg14
F427.45051908493042
sg15
g1279
sg20
g1280
sg22
I10
sg23
I2
sa(dp1320
g4
I00
sg5
F89
sg6
(lp1321
(F328
F641
tp1322
asg9
I0
sg10
(lp1323
g1322
asg12
F427.8008120059967
sg13
F428.20650696754456
sg14
F427.91717600822449
sg15
g1279
sg20
g1280
sg22
I10
sg23
I1
sa(dp1324
g4
I00
sg5
F129
sg6
(lp1325
(F789
F233
tp1326
a(F198
F315
tp1327
ag1289
a(F928
F753
tp1328
ag1296
a(F173
F135
tp1329
a(F551
F120
tp1330
a(F1064
F272
tp1331
asg9
I0
sg10
(lp1332
g1326
asg12
F428.23414707183838
sg13
F428.61225008964539
sg14
F428.38393592834473
sg15
g1279
sg20
g1280
sg22
I10
sg23
I8
sa(dp1333
g4
I00
sg5
F567
sg6
(lp1334
(F959
F543
tp1335
ag1276
ag1289
a(F501
F466
tp1336
a(F1001
F320
tp1337
a(F709
F772
tp1338
a(F838
F387
tp1339
a(F1014
F818
tp1340
asg9
I0
sg10
(lp1341
g1276
asg12
F428.63417506217957
sg13
F429.41461992263794
sg14
F429.23387289047241
sg15
g1279
sg20
g1280
sg22
I10
sg23
I8
sa(dp1342
g4
I00
sg5
F6
sg6
(lp1343
g1295
a(F962
F243
tp1344
asg9
I0
sg10
(lp1345
g1344
asg12
F429.45081496238708
sg13
F429.77632594108582
sg14
F429.48392105102539
sg15
g1279
sg20
g1280
sg22
I10
sg23
I2
sa(dp1346
g4
I00
sg5
F159
sg6
(lp1347
(F371
F341
tp1348
ag1270
ag1295
ag1284
asg9
I0
sg10
(lp1349
g1295
asg12
F429.80082297325134
sg13
F430.16252994537354
sg14
F429.98391604423523
sg15
g1279
sg20
g1280
sg22
I10
sg23
I4
sa(dp1350
g4
I00
sg5
F305
sg6
(lp1351
g1289
ag1338
asg9
I0
sg10
(lp1352
g1338
asg12
F430.18421602249146
sg13
F430.88258600234985
sg14
F430.51723194122314
sg15
g1279
sg20
g1280
sg22
I10
sg23
I2
sa(dp1353
g4
I00
sg5
F371
sg6
(lp1354
(F1185
F266
tp1355
asg9
I0
sg10
(lp1356
g1355
asg12
F430.91751909255981
sg13
F431.52833700180054
sg14
F431.31726789474487
sg15
g1279
sg20
g1280
sg22
I10
sg23
I1
sa(dp1357
g4
I00
sg5
F20
sg6
(lp1358
(F590
F339
tp1359
a(F864
F179
tp1360
a(F1069
F666
tp1361
ag1335
asg9
I0
sg10
(lp1362
g1335
asg12
F431.55083894729614
sg13
F431.81880307197571
sg14
F431.60060000419617
sg15
g1279
sg20
g1280
sg22
I10
sg23
I4
sa(dp1363
g4
I00
sg5
F27
sg6
(lp1364
(F414
F637
tp1365
ag1337
asg9
I0
sg10
(lp1366
g1337
asg12
F431.85089302062988
sg13
F432.46869897842407
sg14
F431.9005720615387
sg15
g1279
sg20
g1280
sg22
I10
sg23
I2
sa(dp1367
g4
I00
sg5
F113
sg6
(lp1368
(F976
F619
tp1369
a(F763
F710
tp1370
a(F474
F588
tp1371
a(F669
F867
tp1372
asg9
I0
sg10
(lp1373
g1371
asg12
F432.5008749961853
sg13
F432.98812890052795
sg14
F432.63392901420593
sg15
g1279
sg20
g1280
sg22
I10
sg23
I4
sa(dp1374
g4
I00
sg5
F26
sg6
(lp1375
g1289
asg9
I0
sg10
(lp1376
g1289
asg12
F433.01754808425903
sg13
F433.31087398529053
sg14
F433.0672550201416
sg15
g1279
sg20
g1280
sg22
I10
sg23
I1
sa(dp1377
g4
I00
sg5
F21
sg6
(lp1378
g1271
ag1365
asg9
I0
sg10
(lp1379
g1365
asg12
F433.33422708511353
sg13
F433.85703897476196
sg14
F433.38393807411194
sg15
g1279
sg20
g1280
sg22
I10
sg23
I2
sa(dp1380
g4
I00
sg5
F69
sg6
(lp1381
(F556
F545
tp1382
ag1327
asg9
I0
sg10
(lp1383
g1382
asg12
F433.88422393798828
sg13
F434.19247508049011
sg14
F433.98393607139587
sg15
g1279
sg20
g1280
sg22
I10
sg23
I2
sa(dp1384
g4
I00
sg5
F126
sg6
(lp1385
g1340
ag1271
a(F1115
F359
tp1386
ag1296
ag1272
a(F811
F555
tp1387
a(F932
F358
tp1388
a(F685
F296
tp1389
asg9
I0
sg10
(lp1390
g1387
asg12
F434.21757292747498
sg13
F434.61871910095215
sg14
F434.36731100082397
sg15
g1279
sg20
g1280
sg22
I10
sg23
I8
sa(dp1391
g4
I00
sg5
F373
sg6
(lp1392
(F261
F254
tp1393
ag1272
ag1372
a(F1082
F747
tp1394
asg9
I0
sg10
(lp1395
g1372
asg12
F434.65088796615601
sg13
F435.30243492126465
sg14
F435.05064392089844
sg15
g1279
sg20
g1280
sg22
I10
sg23
I4
sa(dp1396
g4
I00
sg5
F717
sg6
(lp1397
(F664
F407
tp1398
ag1272
a(F94
F196
tp1399
a(F581
F653
tp1400
asg9
I0
sg10
(lp1401
g1398
asg12
F435.33426094055176
sg13
F436.27210903167725
sg14
F436.08396005630493
sg15
g1279
sg20
g1280
sg22
I10
sg23
I4
sa(dp1402
g4
I00
sg5
F164
sg6
(lp1403
g1272
a(F247
F635
tp1404
ag1394
ag1328
ag1386
a(F462
F367
tp1405
a(F216
F400
tp1406
a(F143
F256
tp1407
ag1388
a(F742
F635
tp1408
a(F93
F98
tp1409
a(F92
F668
tp1410
ag1307
a(F496
F736
tp1411
a(F1174
F165
tp1412
a(F128
F853
tp1413
asg9
I0
sg10
(lp1414
g1408
asg12
F436.3009340763092
sg13
F436.81286096572876
sg14
F436.48404693603516
sg15
g1279
sg20
g1280
sg22
I10
sg23
I16
sa(dp1415
g4
I00
sg5
F481
sg6
(lp1416
(F1132
F98
tp1417
ag1404
asg9
I0
sg10
(lp1418
g1417
asg12
F436.8342719078064
sg13
F437.59646201133728
sg14
F437.33401203155518
sg15
g1279
sg20
g1280
sg22
I10
sg23
I2
sa(dp1419
g4
I00
sg5
F86
sg6
(lp1420
g1272
ag1312
asg9
I0
sg10
(lp1421
g1272
asg12
F437.6176290512085
sg13
F438.07651400566101
sg14
F437.73400807380676
sg15
g1279
sg20
g1280
sg22
I10
sg23
I2
sa(dp1422
g4
I00
sg5
F65
sg6
(lp1423
g1314
a(F424
F148
tp1424
asg9
I0
sg10
(lp1425
g1424
asg12
F438.10094809532166
sg13
F438.52068996429443
sg14
F438.18403005599976
sg15
g1279
sg20
g1280
sg22
I10
sg23
I2
sa(dp1426
g4
I00
sg5
F34
sg6
(lp1427
g1394
ag1399
asg9
I0
sg10
(lp1428
g1399
asg12
F438.55100607872009
sg13
F439.17205810546875
sg14
F438.61737489700317
sg15
g1279
sg20
g1280
sg22
I10
sg23
I2
sa(dp1429
g4
I00
sg5
F394
sg6
(lp1430
g1406
ag1394
a(F1149
F571
tp1431
ag1314
a(F865
F863
tp1432
a(F1024
F433
tp1433
a(F326
F825
tp1434
ag1369
asg9
I0
sg10
(lp1435
g1406
asg12
F439.20101308822632
sg13
F439.81840395927429
sg14
F439.61736392974854
sg15
g1279
sg20
g1280
sg22
I10
sg23
I8
saa(dp1436
g153
(lp1437
(F328
F665
tp1438
asg156
I00
sg157
S'1'
sg158
(lp1439
(F816
F185
tp1440
asa.