(lp1
(lp2
(dp3
S'whole_image_condition'
p4
I00
sS'planned_disp_time'
p5
F345
sS'disp_bubbles'
p6
(lp7
(F97
F478
tp8
a(F250
F860
tp9
a(F743
F437
tp10
a(F604
F254
tp11
asS'control_condition'
p12
I1
sS'chosen_bubble'
p13
(lp14
g10
asS'forced_fix_onset'
p15
F127.15915107727051
sS'saccade_offset'
p16
F127.69536805152893
sS'stim_onset'
p17
F127.52722787857056
sS'img'
p18
cnumpy.core.multiarray
scalar
p19
(cnumpy
dtype
p20
(S'S13'
I0
I1
tRp21
(I3
S'|'
NNNI13
I1
I0
tbS'image_150.bmp'
tRp22
sS'first_bubble'
p23
(F261
F519
tp24
sS'trial'
p25
I1
sS'num_bubbles'
p26
I4
sa(dp27
g4
I00
sg5
F552
sg6
(lp28
(F1003
F527
tp29
a(F805
F111
tp30
a(F562
F431
tp31
asg12
I1
sg13
(lp32
g29
asg15
F128.40221691131592
sg16
F129.14968395233154
sg17
F128.96475791931152
sg18
g22
sg23
g24
sg25
I1
sg26
I3
sa(dp33
g4
I00
sg5
F38
sg6
(lp34
(F177
F781
tp35
a(F667
F422
tp36
asg12
I1
sg13
(lp37
g35
asg15
F129.83976984024048
sg16
F130.1269359588623
sg17
F129.88835692405701
sg18
g22
sg23
g24
sg25
I1
sg26
I2
sa(dp38
g4
I00
sg5
F109
sg6
(lp39
(F1041
F142
tp40
asg12
I1
sg13
(lp41
g40
asg15
F130.83983397483826
sg16
F131.52190494537354
sg17
F130.95785689353943
sg18
g22
sg23
g24
sg25
I1
sg26
I1
sa(dp42
g4
I00
sg5
F91
sg6
(lp43
(F907
F289
tp44
ag9
ag30
ag11
asg12
I1
sg13
(lp45
g44
asg15
F132.20793890953064
sg16
F132.53363490104675
sg17
F132.3120858669281
sg18
g22
sg23
g24
sg25
I1
sg26
I4
sa(dp46
g4
I00
sg5
F348
sg6
(lp47
(F719
F750
tp48
a(F702
F228
tp49
a(F256
F778
tp50
ag8
asg12
I1
sg13
(lp51
g49
asg15
F133.18716597557068
sg16
F133.73760104179382
sg17
F133.54831790924072
sg18
g22
sg23
g24
sg25
I1
sg26
I4
sa(dp52
g4
I00
sg5
F134
sg6
(lp53
(F353
F307
tp54
a(F166
F695
tp55
a(F938
F832
tp56
asg12
I1
sg13
(lp57
g56
asg15
F134.29134392738342
sg16
F134.8093249797821
sg17
F134.43727087974548
sg18
g22
sg23
g24
sg25
I1
sg26
I3
sa(dp58
g4
I00
sg5
F270
sg6
(lp59
(F284
F124
tp60
a(F580
F179
tp61
a(F864
F223
tp62
a(F1109
F727
tp63
a(F430
F323
tp64
asg12
I1
sg13
(lp65
g63
asg15
F135.4788830280304
sg16
F135.97704005241394
sg17
F135.76383185386658
sg18
g22
sg23
g24
sg25
I1
sg26
I5
sa(dp66
g4
I00
sg5
F256
sg6
(lp67
(F366
F120
tp68
a(F190
F436
tp69
a(F416
F731
tp70
a(F904
F136
tp71
asg12
I1
sg13
(lp72
g70
asg15
F136.50676894187927
sg16
F136.98561787605286
sg17
F136.77770805358887
sg18
g22
sg23
g24
sg25
I1
sg26
I4
sa(dp73
g4
I00
sg5
F179
sg6
(lp74
(F482
F407
tp75
ag50
asg12
I1
sg13
(lp76
g75
asg15
F137.62488198280334
sg16
F138.09991884231567
sg17
F137.81927585601807
sg18
g22
sg23
g24
sg25
I1
sg26
I2
sa(dp77
g4
I00
sg5
F186
sg6
(lp78
(F949
F383
tp79
a(F564
F594
tp80
a(F814
F518
tp81
ag30
a(F1035
F704
tp82
asg12
I1
sg13
(lp83
g81
asg15
F138.68737888336182
sg16
F139.0716278553009
sg17
F138.88897895812988
sg18
g22
sg23
g24
sg25
I1
sg26
I5
sa(dp84
g4
I00
sg5
F340
sg6
(lp85
(F1149
F376
tp86
a(F168
F215
tp87
a(F974
F95
tp88
ag9
asg12
I1
sg13
(lp89
g86
asg15
F139.72222995758057
sg16
F140.32740998268127
sg17
F140.07642698287964
sg18
g22
sg23
g24
sg25
I1
sg26
I4
sa(dp90
g4
I00
sg5
F505
sg6
(lp91
(F648
F499
tp92
a(F439
F541
tp93
a(F1077
F607
tp94
asg12
I1
sg13
(lp95
g94
asg15
F140.9652738571167
sg16
F141.67353796958923
sg17
F141.48611497879028
sg18
g22
sg23
g24
sg25
I1
sg26
I3
sa(dp96
g4
I00
sg5
F287
sg6
(lp97
(F693
F867
tp98
asg12
I1
sg13
(lp99
g98
asg15
F142.3680739402771
sg16
F142.85593700408936
sg17
F142.66672205924988
sg18
g22
sg23
g24
sg25
I1
sg26
I1
sa(dp100
g4
I00
sg5
F177
sg6
(lp101
(F167
F555
tp102
a(F1133
F174
tp103
a(F469
F195
tp104
asg12
I1
sg13
(lp105
g104
asg15
F143.54868197441101
sg16
F144.02556586265564
sg17
F143.73622894287109
sg18
g22
sg23
g24
sg25
I1
sg26
I3
sa(dp106
g4
I00
sg5
F75
sg6
(lp107
(F1007
F295
tp108
asg12
I1
sg13
(lp109
g108
asg15
F144.63206100463867
sg16
F144.94681596755981
sg17
F144.72240996360779
sg18
g22
sg23
g24
sg25
I1
sg26
I1
sa(dp110
g4
I00
sg5
F145
sg6
(lp111
(F783
F341
tp112
ag71
asg12
I1
sg13
(lp113
g112
asg15
F145.59042596817017
sg16
F145.92482304573059
sg17
F145.75025606155396
sg18
g22
sg23
g24
sg25
I1
sg26
I2
sa(dp114
g4
I00
sg5
F682
sg6
(lp115
(F1080
F800
tp116
ag93
a(F614
F340
tp117
a(F1074
F342
tp118
asg12
I1
sg13
(lp119
g93
asg15
F146.56963491439819
sg16
F147.64041090011597
sg17
F147.26414704322815
sg18
g22
sg23
g24
sg25
I1
sg26
I4
sa(dp120
g4
I00
sg5
F509
sg6
(lp121
(F860
F809
tp122
asg12
I1
sg13
(lp123
g122
asg15
F148.28498387336731
sg16
F149.01254487037659
sg17
F148.80587601661682
sg18
g22
sg23
g24
sg25
I1
sg26
I1
sa(dp124
g4
I00
sg5
F187
sg6
(lp125
g71
a(F526
F706
tp126
ag54
asg12
I1
sg13
(lp127
g126
asg15
F149.55590605735779
sg16
F149.93997406959534
sg17
F149.75744295120239
sg18
g22
sg23
g24
sg25
I1
sg26
I3
sa(dp128
g4
I00
sg5
F61
sg6
(lp129
(F507
F311
tp130
ag71
ag69
asg12
I1
sg13
(lp131
g69
asg15
F150.55592703819275
sg16
F150.85499286651611
sg17
F150.6323299407959
sg18
g22
sg23
g24
sg25
I1
sg26
I3
sa(dp132
g4
I00
sg5
F348
sg6
(lp133
g60
a(F97
F127
tp134
asg12
I1
sg13
(lp135
g60
asg15
F151.49346303939819
sg16
F153.25445795059204
sg17
F151.85470104217529
sg18
g22
sg23
g24
sg25
I1
sg26
I2
sa(dp136
g4
I00
sg5
F18
sg6
(lp137
(F845
F619
tp138
ag36
a(F1038
F420
tp139
a(F334
F790
tp140
ag71
asg12
I1
sg13
(lp141
g36
asg15
F153.83387184143066
sg16
F154.24082493782043
sg17
F153.86158299446106
sg18
g22
sg23
g24
sg25
I1
sg26
I5
sa(dp142
g4
I00
sg5
F14
sg6
(lp143
g71
asg12
I1
sg13
(lp144
g71
asg15
F154.93805289268494
sg16
F155.23674201965332
sg17
F154.96581697463989
sg18
g22
sg23
g24
sg25
I1
sg26
I1
sa(dp145
g4
I00
sg5
F165
sg6
(lp146
g103
asg12
I1
sg13
(lp147
g103
asg15
F155.89643597602844
sg16
F156.4427318572998
sg17
F156.07702302932739
sg18
g22
sg23
g24
sg25
I1
sg26
I1
saa(dp148
S'right_bubble'
p149
S'no_memory_task'
p150
sS'correct'
p151
g150
sS'subject_number'
p152
S'105'
p153
sS'left_bubble'
p154
g150
sa(lp155
(dp156
g4
I00
sg5
F208
sg6
(lp157
(F852
F652
tp158
a(F694
F695
tp159
a(F986
F197
tp160
asg12
I1
sg13
(lp161
g158
asg15
F158.27849006652832
sg16
F158.71085691452026
sg17
F158.50076794624329
sg18
g19
(g20
(S'S13'
I0
I1
tRp162
(I3
S'|'
NNNI13
I1
I0
tbS'image_169.bmp'
tRp163
sg23
(F1140
F697
tp164
sg25
I2
sg26
I3
sa(dp165
g4
I00
sg5
F468
sg6
(lp166
(F104
F695
tp167
a(F373
F298
tp168
a(F1045
F247
tp169
a(F975
F547
tp170
a(F498
F715
tp171
asg12
I1
sg13
(lp172
g170
asg15
F159.41051292419434
sg16
F160.0651478767395
sg17
F159.88959789276123
sg18
g163
sg23
g164
sg25
I2
sg26
I5
sa(dp173
g4
I00
sg5
F345
sg6
(lp174
(F290
F360
tp175
a(F604
F859
tp176
a(F449
F311
tp177
a(F859
F844
tp178
a(F595
F228
tp179
asg12
I1
sg13
(lp180
g178
asg15
F160.77864289283752
sg16
F161.336021900177
sg17
F161.1397910118103
sg18
g163
sg23
g164
sg25
I2
sg26
I5
sa(dp181
g4
I00
sg5
F704
sg6
(lp182
(F103
F777
tp183
a(F842
F337
tp184
a(F569
F612
tp185
a(F833
F548
tp186
asg12
I1
sg13
(lp187
g186
asg15
F162.02871203422546
sg16
F162.92786192893982
sg17
F162.74396300315857
sg18
g163
sg23
g164
sg25
I2
sg26
I4
sa(dp188
g4
I00
sg5
F859
sg6
(lp189
(F806
F148
tp190
asg12
I1
sg13
(lp191
g190
asg15
F163.63284587860107
sg16
F164.7414288520813
sg17
F164.50814199447632
sg18
g163
sg23
g164
sg25
I2
sg26
I1
sa(dp192
g4
I00
sg5
F255
sg6
(lp193
(F1033
F420
tp194
ag183
a(F1185
F263
tp195
asg12
I1
sg13
(lp196
g194
asg15
F165.38986802101135
sg16
F165.9240710735321
sg17
F165.65381598472595
sg18
g163
sg23
g164
sg25
I2
sg26
I3
sa(dp197
g4
I00
sg5
F19
sg6
(lp198
(F413
F788
tp199
a(F431
F433
tp200
a(F707
F868
tp201
a(F645
F353
tp202
a(F924
F709
tp203
asg12
I1
sg13
(lp204
g201
asg15
F166.55661106109619
sg16
F166.97527503967285
sg17
F166.59143590927124
sg18
g163
sg23
g164
sg25
I2
sg26
I5
sa(dp205
g4
I00
sg5
F77
sg6
(lp206
g203
asg12
I1
sg13
(lp207
g203
asg15
F167.66775703430176
sg16
F187.75929689407349
sg17
F167.75810885429382
sg18
g163
sg23
g164
sg25
I2
sg26
I1
sa(dp208
g4
I00
sg5
F24
sg6
(lp209
(F719
F585
tp210
a(F371
F861
tp211
asg12
I1
sg13
(lp212
g210
asg15
F188.47422885894775
sg16
F188.70047307014465
sg17
F188.50884890556335
sg18
g163
sg23
g164
sg25
I2
sg26
I2
sa(dp213
g4
I00
sg5
F33
sg6
(lp214
g171
a(F1132
F145
tp215
a(F879
F470
tp216
a(F1062
F735
tp217
asg12
I1
sg13
(lp218
g216
asg15
F189.29372000694275
sg16
F189.54497194290161
sg17
F189.34231305122375
sg18
g163
sg23
g164
sg25
I2
sg26
I4
sa(dp219
g4
I00
sg5
F413
sg6
(lp220
g200
a(F780
F821
tp221
a(F1124
F448
tp222
a(F753
F257
tp223
asg12
I1
sg13
(lp224
g222
asg15
F190.23820304870605
sg16
F190.87121987342834
sg17
F190.66176605224609
sg18
g163
sg23
g164
sg25
I2
sg26
I4
sa(dp225
g4
I00
sg5
F359
sg6
(lp226
(F377
F585
tp227
ag185
a(F349
F413
tp228
a(F851
F764
tp229
ag223
asg12
I1
sg13
(lp230
g185
asg15
F191.50913286209106
sg16
F192.28369307518005
sg17
F191.88398289680481
sg18
g163
sg23
g164
sg25
I2
sg26
I5
sa(dp231
g4
I00
sg5
F566
sg6
(lp232
(F701
F490
tp233
asg12
I1
sg13
(lp234
g233
asg15
F192.94683694839478
sg16
F193.71364092826843
sg17
F193.52294588088989
sg18
g163
sg23
g164
sg25
I2
sg26
I1
sa(dp235
g4
I00
sg5
F95
sg6
(lp236
g217
a(F551
F802
tp237
asg12
I1
sg13
(lp238
g237
asg15
F194.37033200263977
sg16
F194.70402789115906
sg17
F194.48157286643982
sg18
g163
sg23
g164
sg25
I2
sg26
I2
sa(dp239
g4
I00
sg5
F593
sg6
(lp240
(F428
F106
tp241
ag159
ag229
a(F613
F501
tp242
asg12
I1
sg13
(lp243
g159
asg15
F195.36333298683167
sg16
F196.15187907218933
sg17
F195.96756386756897
sg18
g163
sg23
g164
sg25
I2
sg26
I4
sa(dp244
g4
I00
sg5
F225
sg6
(lp245
(F201
F683
tp246
ag223
a(F97
F343
tp247
ag229
asg12
I1
sg13
(lp248
g223
asg15
F196.80784702301025
sg16
F197.34538984298706
sg17
F197.0440239906311
sg18
g163
sg23
g164
sg25
I2
sg26
I4
sa(dp249
g4
I00
sg5
F257
sg6
(lp250
g177
asg12
I1
sg13
(lp251
g177
asg15
F197.89822387695312
sg16
F198.34735488891602
sg17
F198.16908597946167
sg18
g163
sg23
g164
sg25
I2
sg26
I1
sa(dp252
g4
I00
sg5
F213
sg6
(lp253
(F244
F297
tp254
ag242
asg12
I1
sg13
(lp255
g242
asg15
F199.00243306159973
sg16
F199.41425704956055
sg17
F199.22461700439453
sg18
g163
sg23
g164
sg25
I2
sg26
I2
sa(dp256
g4
I00
sg5
F189
sg6
(lp257
(F767
F722
tp258
a(F721
F328
tp259
a(F124
F200
tp260
a(F464
F593
tp261
a(F181
F761
tp262
asg12
I1
sg13
(lp263
g261
asg15
F200.03019690513611
sg16
F200.45907306671143
sg17
F200.23168587684631
sg18
g163
sg23
g164
sg25
I2
sg26
I5
sa(dp264
g4
I00
sg5
F318
sg6
(lp265
g202
ag228
asg12
I1
sg13
(lp266
g202
asg15
F201.05108094215393
sg16
F201.60406184196472
sg17
F201.38445687294006
sg18
g163
sg23
g164
sg25
I2
sg26
I2
saa(dp267
g149
g150
sg151
g150
sg152
g153
sg154
g150
sa(lp268
(dp269
g4
I00
sg5
F769
sg6
(lp270
(F399
F597
tp271
a(F890
F833
tp272
a(F192
F426
tp273
asg12
I1
sg13
(lp274
g272
asg15
F203.48182892799377
sg16
F204.48284697532654
sg17
F204.25957798957825
sg18
g19
(g20
(S'S13'
I0
I1
tRp275
(I3
S'|'
NNNI13
I1
I0
tbS'image_157.bmp'
tRp276
sg23
(F802
F481
tp277
sg25
I3
sg26
I3
sa(dp278
g4
I00
sg5
F251
sg6
(lp279
(F954
F315
tp280
a(F540
F418
tp281
a(F1021
F98
tp282
a(F1149
F461
tp283
a(F394
F91
tp284
asg12
I1
sg13
(lp285
g283
asg15
F205.24569702148438
sg16
F206.04248094558716
sg17
F205.50964593887329
sg18
g276
sg23
g277
sg25
I3
sg26
I5
sa(dp286
g4
I00
sg5
F1052
sg6
(lp287
(F815
F856
tp288
a(F927
F432
tp289
a(F672
F345
tp290
a(F694
F733
tp291
a(F737
F581
tp292
asg12
I1
sg13
(lp293
g289
asg15
F206.74576306343079
sg16
F207.98720502853394
sg17
F207.80832195281982
sg18
g276
sg23
g277
sg25
I3
sg26
I5
sa(dp294
g4
I00
sg5
F100
sg6
(lp295
(F939
F672
tp296
a(F537
F685
tp297
a(F739
F270
tp298
asg12
I1
sg13
(lp299
g297
asg15
F208.53067088127136
sg16
F208.93432784080505
sg17
F208.64171195030212
sg18
g276
sg23
g277
sg25
I3
sg26
I3
sa(dp300
g4
I00
sg5
F246
sg6
(lp301
(F502
F333
tp302
a(F427
F168
tp303
a(F655
F573
tp304
asg12
I1
sg13
(lp305
g302
asg15
F209.48204898834229
sg16
F209.96302604675293
sg17
F209.73900890350342
sg18
g276
sg23
g277
sg25
I3
sg26
I3
sa(dp306
g4
I00
sg5
F70
sg6
(lp307
(F480
F742
tp308
asg12
I1
sg13
(lp309
g308
asg15
F210.66258692741394
sg16
F210.91195392608643
sg17
F210.74600386619568
sg18
g276
sg23
g277
sg25
I3
sg26
I1
sa(dp310
g4
I00
sg5
F169
sg6
(lp311
(F340
F186
tp312
ag304
a(F161
F101
tp313
asg12
I1
sg13
(lp314
g304
asg15
F211.53067803382874
sg16
F211.8849139213562
sg17
F211.7112238407135
sg18
g276
sg23
g277
sg25
I3
sg26
I3
sa(dp315
g4
I00
sg5
F64
sg6
(lp316
(F753
F417
tp317
ag303
asg12
I1
sg13
(lp318
g317
asg15
F212.66267800331116
sg16
F212.93808603286743
sg17
F212.73904490470886
sg18
g276
sg23
g277
sg25
I3
sg26
I2
sa(dp319
g4
I00
sg5
F94
sg6
(lp320
(F770
F120
tp321
a(F1153
F220
tp322
asg12
I1
sg13
(lp323
g322
asg15
F213.55854105949402
sg16
F213.86803293228149
sg17
F213.66270184516907
sg18
g276
sg23
g277
sg25
I3
sg26
I2
sa(dp324
g4
I00
sg5
F669
sg6
(lp325
(F176
F804
tp326
a(F1077
F865
tp327
a(F520
F597
tp328
a(F928
F752
tp329
asg12
I1
sg13
(lp330
g329
asg15
F214.53781986236572
sg16
F215.41652894020081
sg17
F215.21837997436523
sg18
g276
sg23
g277
sg25
I3
sg26
I4
sa(dp331
g4
I00
sg5
F346
sg6
(lp332
(F296
F839
tp333
a(F856
F146
tp334
ag291
asg12
I1
sg13
(lp335
g291
asg15
F216.03786087036133
sg16
F216.63459396362305
sg17
F216.39906692504883
sg18
g276
sg23
g277
sg25
I3
sg26
I3
sa(dp336
g4
I00
sg5
F334
sg6
(lp337
g290
asg12
I1
sg13
(lp338
g290
asg15
F217.21846294403076
sg16
F218.00150585174561
sg17
F217.56577897071838
sg18
g276
sg23
g277
sg25
I3
sg26
I1
sa(dp339
g4
I00
sg5
F125
sg6
(lp340
(F1148
F795
tp341
asg12
I1
sg13
(lp342
g341
asg15
F218.72551107406616
sg16
F219.04570007324219
sg17
F218.86430692672729
sg18
g276
sg23
g277
sg25
I3
sg26
I1
sa(dp343
g4
I00
sg5
F592
sg6
(lp344
g321
asg12
I1
sg13
(lp345
g321
asg15
F219.64910387992859
sg16
F220.48558688163757
sg17
F220.25330686569214
sg18
g276
sg23
g277
sg25
I3
sg26
I1
sa(dp346
g4
I00
sg5
F90
sg6
(lp347
(F1177
F713
tp348
ag312
a(F296
F339
tp349
asg12
I1
sg13
(lp350
g348
asg15
F221.17003798484802
sg16
F221.74239587783813
sg17
F221.27425289154053
sg18
g276
sg23
g277
sg25
I3
sg26
I3
sa(dp351
g4
I00
sg5
F176
sg6
(lp352
g282
asg12
I1
sg13
(lp353
g282
asg15
F222.35751104354858
sg16
F222.86836791038513
sg17
F222.54500293731689
sg18
g276
sg23
g277
sg25
I3
sg26
I1
sa(dp354
g4
I00
sg5
F0
sg6
(lp355
g273
asg12
I1
sg13
(lp356
g273
asg15
F223.48261594772339
sg16
F223.87883591651917
sg17
F223.51034593582153
sg18
g276
sg23
g277
sg25
I3
sg26
I1
sa(dp357
g4
I00
sg5
F346
sg6
(lp358
(F541
F505
tp359
ag298
a(F1032
F542
tp360
asg12
I1
sg13
(lp361
g359
asg15
F224.50345301628113
sg16
F225.56437587738037
sg17
F224.86476707458496
sg18
g276
sg23
g277
sg25
I3
sg26
I3
sa(dp362
g4
I00
sg5
F451
sg6
(lp363
(F459
F819
tp364
a(F325
F266
tp365
ag271
asg12
I1
sg13
(lp366
g271
asg15
F226.15630388259888
sg16
F226.79910802841187
sg17
F226.62169194221497
sg18
g276
sg23
g277
sg25
I3
sg26
I3
sa(dp367
g4
I00
sg5
F143
sg6
(lp368
(F873
F630
tp369
a(F1114
F137
tp370
asg12
I1
sg13
(lp371
g369
asg15
F227.47586894035339
sg16
F227.81558394432068
sg17
F227.62862086296082
sg18
g276
sg23
g277
sg25
I3
sg26
I2
saa(dp372
g149
g150
sg151
g150
sg152
g153
sg154
g150
sa(lp373
(dp374
g4
I00
sg5
F51
sg6
(lp375
(F255
F237
tp376
a(F1013
F473
tp377
a(F393
F519
tp378
a(F144
F681
tp379
asg12
I1
sg13
(lp380
g378
asg15
F229.06621193885803
sg16
F229.5095808506012
sg17
F229.31619501113892
sg18
g19
(g20
(S'S13'
I0
I1
tRp381
(I3
S'|'
NNNI13
I1
I0
tbS'image_139.bmp'
tRp382
sg23
(F129
F497
tp383
sg25
I4
sg26
I4
sa(dp384
g4
I00
sg5
F231
sg6
(lp385
(F816
F758
tp386
a(F475
F148
tp387
a(F505
F825
tp388
a(F1035
F553
tp389
asg12
I1
sg13
(lp390
g386
asg15
F230.21902990341187
sg16
F230.78994393348694
sg17
F230.46210098266602
sg18
g382
sg23
g383
sg25
I4
sg26
I4
sa(dp391
g4
I00
sg5
F116
sg6
(lp392
g387
a(F658
F451
tp393
ag388
a(F197
F295
tp394
a(F885
F327
tp395
asg12
I1
sg13
(lp396
g393
asg15
F231.48987984657288
sg16
F231.86283588409424
sg17
F231.62182402610779
sg18
g382
sg23
g383
sg25
I4
sg26
I5
sa(dp397
g4
I00
sg5
F96
sg6
(lp398
(F1110
F128
tp399
a(F611
F844
tp400
asg12
I1
sg13
(lp401
g400
asg15
F232.53853106498718
sg16
F232.899258852005
sg17
F232.6496570110321
sg18
g382
sg23
g383
sg25
I4
sg26
I2
sa(dp402
g4
I00
sg5
F351
sg6
(lp403
(F211
F776
tp404
a(F1187
F849
tp405
a(F412
F287
tp406
ag394
asg12
I1
sg13
(lp407
g394
asg15
F233.56632089614868
sg16
F235.41457486152649
sg17
F233.92750406265259
sg18
g382
sg23
g383
sg25
I4
sg26
I4
sa(dp408
g4
I00
sg5
F210
sg6
(lp409
g395
ag389
a(F700
F111
tp410
ag379
a(F253
F95
tp411
asg12
I1
sg13
(lp412
g389
asg15
F236.01087403297424
sg16
F236.80871605873108
sg17
F236.23319792747498
sg18
g382
sg23
g383
sg25
I4
sg26
I5
sa(dp413
g4
I00
sg5
F262
sg6
(lp414
(F395
F111
tp415
ag410
a(F606
F535
tp416
asg12
I1
sg13
(lp417
g416
asg15
F237.56647491455078
sg16
F238.01867604255676
sg17
F237.8515510559082
sg18
g382
sg23
g383
sg25
I4
sg26
I3
sa(dp418
g4
I00
sg5
F46
sg6
(lp419
(F952
F424
tp420
a(F140
F402
tp421
asg12
I1
sg13
(lp422
g420
asg15
F238.69154095649719
sg16
F238.95103597640991
sg17
F238.74704790115356
sg18
g382
sg23
g383
sg25
I4
sg26
I2
sa(dp423
g4
I00
sg5
F185
sg6
(lp424
(F571
F96
tp425
ag405
a(F1078
F323
tp426
ag376
a(F527
F259
tp427
asg12
I1
sg13
(lp428
g427
asg15
F239.53890085220337
sg16
F240.0060338973999
sg17
F239.73329901695251
sg18
g382
sg23
g383
sg25
I4
sg26
I5
sa(dp429
g4
I00
sg5
F363
sg6
(lp430
(F763
F232
tp431
a(F416
F738
tp432
asg12
I1
sg13
(lp433
g432
asg15
F240.56666898727417
sg16
F241.1429500579834
sg17
F240.94166302680969
sg18
g382
sg23
g383
sg25
I4
sg26
I2
sa(dp434
g4
I00
sg5
F207
sg6
(lp435
g404
a(F372
F413
tp436
a(F628
F753
tp437
asg12
I1
sg13
(lp438
g437
asg15
F241.7472128868103
sg16
F242.19001007080078
sg17
F241.9695999622345
sg18
g382
sg23
g383
sg25
I4
sg26
I3
sa(dp439
g4
I00
sg5
F180
sg6
(lp440
(F697
F382
tp441
a(F155
F203
tp442
a(F1122
F789
tp443
ag387
asg12
I1
sg13
(lp444
g441
asg15
F242.8236870765686
sg16
F243.21312999725342
sg17
F243.01824498176575
sg18
g382
sg23
g383
sg25
I4
sg26
I4
sa(dp445
g4
I00
sg5
F289
sg6
(lp446
(F512
F481
tp447
ag388
a(F146
F819
tp448
asg12
I1
sg13
(lp449
g447
asg15
F243.87923288345337
sg16
F244.36655497550964
sg17
F244.17791986465454
sg18
g382
sg23
g383
sg25
I4
sg26
I3
sa(dp450
g4
I00
sg5
F308
sg6
(lp451
(F1069
F863
tp452
a(F854
F194
tp453
a(F287
F420
tp454
asg12
I1
sg13
(lp455
g453
asg15
F245.00434184074402
sg16
F245.5882580280304
sg17
F245.32378888130188
sg18
g382
sg23
g383
sg25
I4
sg26
I3
sa(dp456
g4
I00
sg5
F118
sg6
(lp457
g452
asg12
I1
sg13
(lp458
g452
asg15
F246.24739789962769
sg16
F246.82141494750977
sg17
F246.37946391105652
sg18
g382
sg23
g383
sg25
I4
sg26
I1
sa(dp459
g4
I00
sg5
F16
sg6
(lp460
(F998
F333
tp461
asg12
I1
sg13
(lp462
g461
asg15
F247.52529001235962
sg16
F248.04363489151001
sg17
F247.55298185348511
sg18
g382
sg23
g383
sg25
I4
sg26
I1
sa(dp463
g4
I00
sg5
F54
sg6
(lp464
g387
a(F546
F630
tp465
a(F579
F344
tp466
asg12
I1
sg13
(lp467
g465
asg15
F248.71286606788635
sg16
F248.94710087776184
sg17
F248.7822470664978
sg18
g382
sg23
g383
sg25
I4
sg26
I3
sa(dp468
g4
I00
sg5
F71
sg6
(lp469
g406
ag466
a(F600
F169
tp470
a(F854
F406
tp471
asg12
I1
sg13
(lp472
g471
asg15
F249.51836204528809
sg16
F249.80444598197937
sg17
F249.60168385505676
sg18
g382
sg23
g383
sg25
I4
sg26
I4
sa(dp473
g4
I00
sg5
F329
sg6
(lp474
(F318
F146
tp475
asg12
I1
sg13
(lp476
g475
asg15
F250.40729904174805
sg16
F251.21898007392883
sg17
F250.74761700630188
sg18
g382
sg23
g383
sg25
I4
sg26
I1
sa(dp477
g4
I00
sg5
F495
sg6
(lp478
g466
asg12
I1
sg13
(lp479
g466
asg15
F251.92823195457458
sg16
F252.5967800617218
sg17
F252.43521404266357
sg18
g382
sg23
g383
sg25
I4
sg26
I1
sa(dp480
g4
I00
sg5
F1347
sg6
(lp481
(F1043
F789
tp482
a(F821
F524
tp483
asg12
I1
sg13
(lp484
g483
asg15
F253.24075198173523
sg16
F254.94410395622253
sg17
F254.60209488868713
sg18
g382
sg23
g383
sg25
I4
sg26
I2
sa(dp485
g4
I00
sg5
F24
sg6
(lp486
(F172
F123
tp487
a(F289
F499
tp488
ag377
a(F975
F832
tp489
asg12
I1
sg13
(lp490
g377
asg15
F255.65757989883423
sg16
F255.95630788803101
sg17
F255.69227385520935
sg18
g382
sg23
g383
sg25
I4
sg26
I4
sa(dp491
g4
I00
sg5
F81
sg6
(lp492
(F894
F93
tp493
ag421
a(F661
F221
tp494
ag379
asg12
I1
sg13
(lp495
g494
asg15
F256.58808994293213
sg16
F257.07755899429321
sg17
F256.67841196060181
sg18
g382
sg23
g383
sg25
I4
sg26
I4
sa(dp496
g4
I00
sg5
F191
sg6
(lp497
(F727
F866
tp498
a(F680
F667
tp499
ag493
ag395
a(F1176
F202
tp500
asg12
I1
sg13
(lp501
g499
asg15
F257.81037402153015
sg16
F258.6029200553894
sg17
F258.01184892654419
sg18
g382
sg23
g383
sg25
I4
sg26
I5
sa(dp502
g4
I00
sg5
F308
sg6
(lp503
(F505
F722
tp504
ag376
asg12
I1
sg13
(lp505
g504
asg15
F259.19932293891907
sg16
F259.78182697296143
sg17
F259.51880288124084
sg18
g382
sg23
g383
sg25
I4
sg26
I2
sa(dp506
g4
I00
sg5
F68
sg6
(lp507
(F352
F836
tp508
ag387
a(F330
F580
tp509
asg12
I1
sg13
(lp510
g508
asg15
F260.40770697593689
sg16
F261.01615405082703
sg17
F260.49105787277222
sg18
g382
sg23
g383
sg25
I4
sg26
I3
sa(dp511
g4
I00
sg5
F88
sg6
(lp512
(F817
F843
tp513
asg12
I1
sg13
(lp514
g513
asg15
F261.71334290504456
sg16
F262.01386904716492
sg17
F261.81057405471802
sg18
g382
sg23
g383
sg25
I4
sg26
I1
saa(dp515
g149
g150
sg151
g150
sg152
g153
sg154
g150
sa(lp516
(dp517
g4
I00
sg5
F96
sg6
(lp518
(F808
F508
tp519
a(F557
F660
tp520
asg12
I1
sg13
(lp521
g519
asg15
F263.32454991340637
sg16
F263.73234105110168
sg17
F263.5329110622406
sg18
g19
(g20
(S'S13'
I0
I1
tRp522
(I3
S'|'
NNNI13
I1
I0
tbS'image_143.bmp'
tRp523
sg23
(F1062
F600
tp524
sg25
I5
sg26
I2
sa(dp525
g4
I00
sg5
F105
sg6
(lp526
(F749
F339
tp527
a(F435
F534
tp528
a(F930
F351
tp529
a(F547
F302
tp530
asg12
I1
sg13
(lp531
g529
asg15
F264.43568992614746
sg16
F264.76075100898743
sg17
F264.55374193191528
sg18
g523
sg23
g524
sg25
I5
sg26
I4
sa(dp532
g4
I00
sg5
F434
sg6
(lp533
(F90
F141
tp534
a(F438
F249
tp535
a(F924
F668
tp536
asg12
I1
sg13
(lp537
g536
asg15
F265.37327194213867
sg16
F266.05772304534912
sg17
F265.81761598587036
sg18
g523
sg23
g524
sg25
I5
sg26
I3
sa(dp538
g4
I00
sg5
F156
sg6
(lp539
(F852
F396
tp540
a(F658
F340
tp541
a(F285
F607
tp542
asg12
I1
sg13
(lp543
g540
asg15
F266.7205228805542
sg16
F267.07658505439758
sg17
F266.88718700408936
sg18
g523
sg23
g524
sg25
I5
sg26
I3
sa(dp544
g4
I00
sg5
F178
sg6
(lp545
(F956
F774
tp546
a(F889
F159
tp547
a(F142
F203
tp548
asg12
I1
sg13
(lp549
g546
asg15
F267.67890787124634
sg16
F268.44383001327515
sg17
F267.86638402938843
sg18
g523
sg23
g524
sg25
I5
sg26
I3
sa(dp550
g4
I00
sg5
F64
sg6
(lp551
(F339
F668
tp552
a(F781
F260
tp553
asg12
I1
sg13
(lp554
g552
asg15
F269.12334585189819
sg16
F269.40175890922546
sg17
F269.19981598854065
sg18
g523
sg23
g524
sg25
I5
sg26
I2
sa(dp555
g4
I00
sg5
F48
sg6
(lp556
g548
a(F150
F489
tp557
a(F652
F235
tp558
ag547
a(F513
F776
tp559
asg12
I1
sg13
(lp560
g559
asg15
F270.01231002807617
sg16
F270.26408696174622
sg17
F270.07477188110352
sg18
g523
sg23
g524
sg25
I5
sg26
I5
sa(dp561
g4
I00
sg5
F401
sg6
(lp562
(F957
F861
tp563
asg12
I1
sg13
(lp564
g563
asg15
F270.85261201858521
sg16
F271.43222284317017
sg17
F271.26936793327332
sg18
g523
sg23
g524
sg25
I5
sg26
I1
sa(dp565
g4
I00
sg5
F13
sg6
(lp566
(F900
F476
tp567
a(F1073
F373
tp568
ag542
asg12
I1
sg13
(lp569
g567
asg15
F272.12349796295166
sg16
F272.44967699050903
sg17
F272.15124297142029
sg18
g523
sg23
g524
sg25
I5
sg26
I3
sa(dp570
g4
I00
sg5
F130
sg6
(lp571
(F382
F773
tp572
a(F1185
F352
tp573
a(F247
F209
tp574
a(F728
F133
tp575
a(F209
F578
tp576
asg12
I1
sg13
(lp577
g572
asg15
F273.16535997390747
sg16
F273.53995490074158
sg17
F273.30405902862549
sg18
g523
sg23
g524
sg25
I5
sg26
I5
sa(dp578
g4
I00
sg5
F60
sg6
(lp579
g574
asg12
I1
sg13
(lp580
g574
asg15
F274.24164795875549
sg16
F274.73384284973145
sg17
F274.31110000610352
sg18
g523
sg23
g524
sg25
I5
sg26
I1
sa(dp581
g4
I00
sg5
F189
sg6
(lp582
(F571
F216
tp583
asg12
I1
sg13
(lp584
g583
asg15
F275.4013819694519
sg16
F276.16932487487793
sg17
F275.60285806655884
sg18
g523
sg23
g524
sg25
I5
sg26
I1
sa(dp585
g4
I00
sg5
F21
sg6
(lp586
(F504
F408
tp587
a(F134
F292
tp588
a(F98
F632
tp589
a(F674
F454
tp590
a(F721
F763
tp591
asg12
I1
sg13
(lp592
g590
asg15
F276.86671900749207
sg16
F277.09750294685364
sg17
F276.90141892433167
sg18
g523
sg23
g524
sg25
I5
sg26
I5
sa(dp593
g4
I00
sg5
F275
sg6
(lp594
(F600
F133
tp595
a(F1138
F436
tp596
a(F330
F848
tp597
a(F1128
F154
tp598
a(F954
F531
tp599
asg12
I1
sg13
(lp600
g598
asg15
F277.74178600311279
sg16
F283.80315399169922
sg17
F278.02655100822449
sg18
g523
sg23
g524
sg25
I5
sg26
I5
sa(dp601
g4
I00
sg5
F367
sg6
(lp602
(F772
F852
tp603
a(F1014
F309
tp604
a(F157
F406
tp605
asg12
I1
sg13
(lp606
g603
asg15
F284.47819495201111
sg16
F285.32590293884277
sg17
F284.86025595664978
sg18
g523
sg23
g524
sg25
I5
sg26
I3
sa(dp607
g4
I00
sg5
F736
sg6
(lp608
g575
ag599
ag547
a(F448
F352
tp609
ag573
asg12
I1
sg13
(lp610
g599
asg15
F285.94352102279663
sg16
F286.91018605232239
sg17
F286.69369792938232
sg18
g523
sg23
g524
sg25
I5
sg26
I5
sa(dp611
g4
I00
sg5
F54
sg6
(lp612
g520
a(F199
F806
tp613
ag558
asg12
I1
sg13
(lp614
g520
asg15
F287.5408399105072
sg16
F287.79507088661194
sg17
F287.61037993431091
sg18
g523
sg23
g524
sg25
I5
sg26
I3
sa(dp615
g4
I00
sg5
F477
sg6
(lp616
(F1002
F406
tp617
ag553
asg12
I1
sg13
(lp618
g617
asg15
F288.33947706222534
sg16
F289.0705349445343
sg17
F288.83980488777161
sg18
g523
sg23
g524
sg25
I5
sg26
I2
sa(dp619
g4
I00
sg5
F210
sg6
(lp620
(F362
F373
tp621
ag573
asg12
I1
sg13
(lp622
g621
asg15
F289.756187915802
sg16
F290.34042692184448
sg17
F289.97851800918579
sg18
g523
sg23
g524
sg25
I5
sg26
I2
sa(dp623
g4
I00
sg5
F111
sg6
(lp624
(F493
F189
tp625
asg12
I1
sg13
(lp626
g625
asg15
F290.92296099662781
sg16
F291.30046105384827
sg17
F291.04798603057861
sg18
g523
sg23
g524
sg25
I5
sg26
I1
sa(dp627
g4
I00
sg5
F228
sg6
(lp628
(F1046
F509
tp629
a(F629
F614
tp630
asg12
I1
sg13
(lp631
g630
asg15
F291.90215086936951
sg16
F292.56016898155212
sg17
F292.14518690109253
sg18
g523
sg23
g524
sg25
I5
sg26
I2
sa(dp632
g4
I00
sg5
F37
sg6
(lp633
(F1057
F869
tp634
asg12
I1
sg13
(lp635
g634
asg15
F293.12438797950745
sg16
F293.43667888641357
sg17
F293.17293787002563
sg18
g523
sg23
g524
sg25
I5
sg26
I1
sa(dp636
g4
I00
sg5
F163
sg6
(lp637
(F808
F735
tp638
a(F1177
F651
tp639
ag576
asg12
I1
sg13
(lp640
g638
asg15
F294.12437701225281
sg16
F294.64772891998291
sg17
F294.29794907569885
sg18
g523
sg23
g524
sg25
I5
sg26
I3
sa(dp641
g4
I00
sg5
F54
sg6
(lp642
g629
ag604
asg12
I1
sg13
(lp643
g629
asg15
F295.35358786582947
sg16
F295.66396903991699
sg17
F295.42302799224854
sg18
g523
sg23
g524
sg25
I5
sg26
I2
sa(dp644
g4
I00
sg5
F397
sg6
(lp645
g553
a(F443
F718
tp646
a(F600
F416
tp647
asg12
I1
sg13
(lp648
g647
asg15
F296.33281898498535
sg16
F296.93196487426758
sg17
F296.74258995056152
sg18
g523
sg23
g524
sg25
I5
sg26
I3
sa(dp649
g4
I00
sg5
F780
sg6
(lp650
g597
ag568
a(F1038
F764
tp651
ag528
asg12
I1
sg13
(lp652
g651
asg15
F297.62458086013794
sg16
F298.64539885520935
sg17
F298.41624903678894
sg18
g523
sg23
g524
sg25
I5
sg26
I4
sa(dp653
g4
I00
sg5
F38
sg6
(lp654
(F131
F861
tp655
ag568
asg12
I1
sg13
(lp656
g568
asg15
F299.36764883995056
sg16
F300.12175989151001
sg17
F299.41631603240967
sg18
g523
sg23
g524
sg25
I5
sg26
I2
sa(dp657
g4
I00
sg5
F1135
sg6
(lp658
g587
asg12
I1
sg13
(lp659
g587
asg15
F300.77051901817322
sg16
F302.086345911026
sg17
F301.91639089584351
sg18
g523
sg23
g524
sg25
I5
sg26
I1
saa(dp660
g149
g150
sg151
g150
sg152
g153
sg154
g150
sa.