(lp1
(lp2
(dp3
S'trial'
p4
I0
sS'disp_bubbles'
p5
(lp6
sS'stim_onset'
p7
F12.202959775924683
sS'img'
p8
cnumpy.core.multiarray
scalar
p9
(cnumpy
dtype
p10
(S'S13'
I0
I1
tRp11
(I3
S'|'
NNNI13
I1
I0
tbS'image_129.bmp'
tRp12
sS'first_bubble'
p13
(F1112
F729
tp14
sS'chosen_bubble'
p15
(lp16
(F640
F92
tp17
asS'forced_fix_onset'
p18
F11.819628953933716
sS'saccade_offset'
p19
F12.202969789505005
sS'planned_disp_time'
p20
F365
sa(dp21
g4
I0
sg5
(lp22
sg7
F13.002975940704346
sg8
g12
sg13
g14
sg15
(lp23
(F122
F111
tp24
asg18
F12.936309814453125
sg19
F13.002992868423462
sg20
F43
sa(dp25
g4
I0
sg5
(lp26
sg7
F14.71966290473938
sg8
g12
sg13
g14
sg15
(lp27
(F1070
F406
tp28
asg18
F13.719645977020264
sg19
F14.719674825668335
sg20
F971
sa(dp29
g4
I0
sg5
(lp30
sg7
F15.436349868774414
sg8
g12
sg13
g14
sg15
(lp31
(F875
F786
tp32
asg18
F15.38634181022644
sg19
F15.43636679649353
sg20
F18
sa(dp33
g4
I0
sg5
(lp34
sg7
F16.203022956848145
sg8
g12
sg13
g14
sg15
(lp35
(F810
F730
tp36
asg18
F16.15300989151001
sg19
F16.203037977218628
sg20
F24
sa(dp37
g4
I0
sg5
(lp38
sg7
F17.336371898651123
sg8
g12
sg13
g14
sg15
(lp39
(F1126
F815
tp40
asg18
F16.903023958206177
sg19
F17.336381912231445
sg20
F407
sa(dp41
g4
I0
sg5
(lp42
sg7
F18.219720840454102
sg8
g12
sg13
g14
sg15
(lp43
(F117
F243
tp44
asg18
F18.019714832305908
sg19
F18.219730854034424
sg20
F172
sa(dp45
g4
I0
sg5
(lp46
sg7
F19.169737815856934
sg8
g12
sg13
g14
sg15
(lp47
(F1046
F794
tp48
asg18
F18.919732809066772
sg19
F19.169755935668945
sg20
F226
sa(dp49
g4
I0
sg5
(lp50
sg7
F20.253090858459473
sg8
g12
sg13
g14
sg15
(lp51
(F652
F623
tp52
asg18
F19.869748830795288
sg19
F20.253105878829956
sg20
F362
sa(dp53
g4
I0
sg5
(lp54
sg7
F20.986423969268799
sg8
g12
sg13
g14
sg15
(lp55
(F1014
F104
tp56
asg18
F20.95308780670166
sg19
F20.986434936523438
sg20
F16
sa(dp57
g4
I0
sg5
(lp58
sg7
F22.686460971832275
sg8
g12
sg13
g14
sg15
(lp59
(F983
F175
tp60
asg18
F21.736430883407593
sg19
F22.686477899551392
sg20
F929
sa(dp61
g4
I0
sg5
(lp62
sg7
F23.503130912780762
sg8
g12
sg13
g14
sg15
(lp63
(F928
F485
tp64
asg18
F23.369788885116577
sg19
F23.503142833709717
sg20
F112
sa(dp65
g4
I0
sg5
(lp66
sg7
F24.353152990341187
sg8
g12
sg13
g14
sg15
(lp67
(F552
F845
tp68
asg18
F24.169809818267822
sg19
F24.353169918060303
sg20
F155
sa(dp69
g4
I0
sg5
(lp70
sg7
F25.219820976257324
sg8
g12
sg13
g14
sg15
(lp71
(F732
F157
tp72
asg18
F25.103148937225342
sg19
F25.219832897186279
sg20
F93
sa(dp73
g4
I0
sg5
(lp74
sg7
F25.986510992050171
sg8
g12
sg13
g14
sg15
(lp75
g24
asg18
F25.869839906692505
sg19
F25.986528873443604
sg20
F90
sa(dp76
g4
I0
sg5
(lp77
sg7
F26.869849920272827
sg8
g12
sg13
g14
sg15
(lp78
(F183
F860
tp79
asg18
F26.653175830841064
sg19
F26.869866847991943
sg20
F189
sa(dp80
g4
I0
sg5
(lp81
sg7
F27.869885921478271
sg8
g12
sg13
g14
sg15
(lp82
(F398
F756
tp83
asg18
F27.653198003768921
sg19
F27.8699049949646
sg20
F186
sa(dp84
g4
I0
sg5
(lp85
sg7
F28.703216791152954
sg8
g12
sg13
g14
sg15
(lp86
g14
asg18
F28.653203964233398
sg19
F28.703233957290649
sg20
F17
sa(dp87
g4
I0
sg5
(lp88
sg7
F29.869892835617065
sg8
g12
sg13
g14
sg15
(lp89
g48
asg18
F29.43654990196228
sg19
F29.869902849197388
sg20
F408
sa(dp90
g4
I0
sg5
(lp91
sg7
F30.653250932693481
sg8
g12
sg13
g14
sg15
(lp92
(F743
F315
tp93
asg18
F30.586571931838989
sg19
F30.653265953063965
sg20
F43
sa(dp94
g4
I0
sg5
(lp95
sg7
F31.55385684967041
sg8
g12
sg13
g14
sg15
(lp96
g14
asg18
F31.387266874313354
sg19
F31.553875923156738
sg20
F146
sa(dp97
g4
I0
sg5
(lp98
sg7
F32.453848838806152
sg8
g12
sg13
g14
sg15
(lp99
(F245
F370
tp100
asg18
F32.303972959518433
sg19
F32.453866004943848
sg20
F117
sa(dp101
g4
I0
sg5
(lp102
sg7
F33.137254953384399
sg8
g12
sg13
g14
sg15
(lp103
(F652
F438
tp104
asg18
F33.087286949157715
sg19
F33.137271881103516
sg20
F31
sa(dp105
g4
I0
sg5
(lp106
sg7
F33.970541954040527
sg8
g12
sg13
g14
sg15
(lp107
(F98
F832
tp108
asg18
F33.837288856506348
sg19
F33.970558881759644
sg20
F102
sa(dp109
g4
I0
sg5
(lp110
sg7
F35.103902816772461
sg8
g12
sg13
g14
sg15
(lp111
g24
asg18
F34.787290811538696
sg19
F35.103920936584473
sg20
F284
sa(dp112
g4
I0
sg5
(lp113
sg7
F36.170605897903442
sg8
g12
sg13
g14
sg15
(lp114
(F729
F468
tp115
asg18
F35.853989839553833
sg19
F36.170619964599609
sg20
F292
sa(dp116
g4
I0
sg5
(lp117
sg7
F37.520656824111938
sg8
g12
sg13
g14
sg15
(lp118
(F1080
F264
tp119
asg18
F36.870668888092041
sg19
F37.520673990249634
sg20
F625
saa(dp120
S'right_bubble'
p121
S'no_memory_task'
p122
sS'correct'
p123
g122
sS'subject_number'
p124
S'9'
sS'left_bubble'
p125
g122
sa(lp126
(dp127
g4
I1
sg5
(lp128
sg7
F40.337332010269165
sg8
g9
(g10
(S'S13'
I0
I1
tRp129
(I3
S'|'
NNNI13
I1
I0
tbS'image_183.bmp'
tRp130
sg13
(F268
F847
tp131
sg15
(lp132
(F437
F143
tp133
asg18
F40.304064989089966
sg19
F40.337346792221069
sg20
F6
sa(dp134
g4
I1
sg5
(lp135
sg7
F40.5206618309021
sg8
g130
sg13
g131
sg15
(lp136
(F411
F623
tp137
asg18
F40.370735883712769
sg19
F40.520670890808105
sg20
F119
sa(dp138
g4
I1
sg5
(lp139
sg7
F40.687331914901733
sg8
g130
sg13
g131
sg15
(lp140
(F174
F663
tp141
asg18
F40.554064989089966
sg19
F40.687342882156372
sg20
F101
sa(dp142
g4
I1
sg5
(lp143
sg7
F40.787332773208618
sg8
g130
sg13
g131
sg15
(lp144
(F293
F722
tp145
asg18
F40.720730781555176
sg19
F40.787343978881836
sg20
F40
sa(dp146
g4
I1
sg5
(lp147
sg7
F40.920673847198486
sg8
g130
sg13
g131
sg15
(lp148
(F1168
F710
tp149
asg18
F40.821173906326294
sg19
F40.920689821243286
sg20
F74
sa(dp150
g4
I1
sg5
(lp151
sg7
F41.287352800369263
sg8
g130
sg13
g131
sg15
(lp152
(F397
F791
tp153
asg18
F40.954072952270508
sg19
F41.287368774414062
sg20
F309
sa(dp154
g4
I1
sg5
(lp155
sg7
F41.404022932052612
sg8
g130
sg13
g131
sg15
(lp156
(F1033
F307
tp157
asg18
F41.320727825164795
sg19
F41.404039859771729
sg20
F51
sa(dp158
g4
I1
sg5
(lp159
sg7
F41.670687913894653
sg8
g130
sg13
g131
sg15
(lp160
(F1010
F470
tp161
asg18
F41.437428951263428
sg19
F41.670699834823608
sg20
F215
sa(dp162
g4
I1
sg5
(lp163
sg7
F41.80402398109436
sg8
g130
sg13
g131
sg15
(lp164
g145
asg18
F41.704058885574341
sg19
F41.80403995513916
sg20
F67
sa(dp165
g4
I1
sg5
(lp166
sg7
F42.070684909820557
sg8
g130
sg13
g131
sg15
(lp167
(F1101
F611
tp168
asg18
F41.837414979934692
sg19
F42.070695877075195
sg20
F200
sa(dp169
g4
I1
sg5
(lp170
sg7
F42.770697832107544
sg8
g130
sg13
g131
sg15
(lp171
(F193
F322
tp172
asg18
F42.104089975357056
sg19
F42.770709991455078
sg20
F638
sa(dp173
g4
I1
sg5
(lp174
sg7
F43.087378978729248
sg8
g130
sg13
g131
sg15
(lp175
(F460
F223
tp176
asg18
F42.804104804992676
sg19
F43.087395906448364
sg20
F263
sa(dp177
g4
I1
sg5
(lp178
sg7
F43.28741979598999
sg8
g130
sg13
g131
sg15
(lp179
(F962
F596
tp180
asg18
F43.12075400352478
sg19
F43.287432909011841
sg20
F147
sa(dp181
g4
I1
sg5
(lp182
sg7
F43.687383890151978
sg8
g130
sg13
g131
sg15
(lp183
g149
asg18
F43.321203947067261
sg19
F43.687395811080933
sg20
F345
sa(dp184
g4
I1
sg5
(lp185
sg7
F43.770726919174194
sg8
g130
sg13
g131
sg15
(lp186
g153
asg18
F43.720793008804321
sg19
F43.770744800567627
sg20
F27
sa(dp187
g4
I1
sg5
(lp188
sg7
F43.837399959564209
sg8
g130
sg13
g131
sg15
(lp189
(F817
F777
tp190
asg18
F43.804108858108521
sg19
F43.837425947189331
sg20
F3
sa(dp191
g4
I1
sg5
(lp192
sg7
F44.687397956848145
sg8
g130
sg13
g131
sg15
(lp193
g176
asg18
F43.870756864547729
sg19
F44.6874098777771
sg20
F789
sa(dp194
g4
I1
sg5
(lp195
sg7
F44.770737886428833
sg8
g130
sg13
g131
sg15
(lp196
(F1187
F616
tp197
asg18
F44.720788955688477
sg19
F44.770756959915161
sg20
F29
sa(dp198
g4
I1
sg5
(lp199
sg7
F45.220737934112549
sg8
g130
sg13
g131
sg15
(lp200
(F894
F822
tp201
asg18
F44.804138898849487
sg19
F45.220748901367188
sg20
F395
sa(dp202
g4
I1
sg5
(lp203
sg7
F45.570738792419434
sg8
g130
sg13
g131
sg15
(lp204
(F394
F710
tp205
asg18
F45.254117965698242
sg19
F45.570750951766968
sg20
F284
sa(dp206
g4
I1
sg5
(lp207
sg7
F47.487450838088989
sg8
g130
sg13
g131
sg15
(lp208
(F1137
F791
tp209
asg18
F45.604117870330811
sg19
F47.487468004226685
sg20
F1853
sa(dp210
g4
I1
sg5
(lp211
sg7
F47.637450933456421
sg8
g130
sg13
g131
sg15
(lp212
(F522
F94
tp213
asg18
F47.520830869674683
sg19
F47.637467861175537
sg20
F94
saa(dp214
g121
(lp215
(F279
F117
tp216
asg123
(lp217
(F1188
F500
tp218
asg124
S'9'
sg125
I00
sa(lp219
(dp220
g4
I2
sg5
(lp221
sg7
F57.487677812576294
sg8
g9
(g10
(S'S13'
I0
I1
tRp222
(I3
S'|'
NNNI13
I1
I0
tbS'image_166.bmp'
tRp223
sg13
(F649
F305
tp224
sg15
(lp225
(F979
F104
tp226
asg18
F56.171000957489014
sg19
F57.487691879272461
sg20
F1295
sa(dp227
g4
I2
sg5
(lp228
sg7
F57.587677001953125
sg8
g223
sg13
g224
sg15
(lp229
(F491
F571
tp230
asg18
F57.520999908447266
sg19
F57.587697982788086
sg20
F44
sa(dp231
g4
I2
sg5
(lp232
sg7
F57.937683820724487
sg8
g223
sg13
g224
sg15
(lp233
(F817
F152
tp234
asg18
F57.620979785919189
sg19
F57.937694787979126
sg20
F284
sa(dp235
g4
I2
sg5
(lp236
sg7
F58.421018838882446
sg8
g223
sg13
g224
sg15
(lp237
(F422
F607
tp238
asg18
F57.971004009246826
sg19
F58.42103385925293
sg20
F428
sa(dp239
g4
I2
sg5
(lp240
sg7
F58.821029901504517
sg8
g223
sg13
g224
sg15
(lp241
(F556
F732
tp242
asg18
F58.454310894012451
sg19
F58.821039915084839
sg20
F344
sa(dp243
g4
I2
sg5
(lp244
sg7
F59.071036815643311
sg8
g223
sg13
g224
sg15
(lp245
(F1046
F144
tp246
asg18
F58.854336977005005
sg19
F59.071047782897949
sg20
F192
sa(dp247
g4
I2
sg5
(lp248
sg7
F59.254368782043457
sg8
g223
sg13
g224
sg15
(lp249
(F406
F751
tp250
asg18
F59.104343891143799
sg19
F59.25438380241394
sg20
F126
sa(dp251
g4
I2
sg5
(lp252
sg7
F59.871050834655762
sg8
g223
sg13
g224
sg15
(lp253
(F1116
F213
tp254
asg18
F59.287701845169067
sg19
F59.871065855026245
sg20
F558
sa(dp255
g4
I2
sg5
(lp256
sg7
F60.104381799697876
sg8
g223
sg13
g224
sg15
(lp257
g234
asg18
F59.904378890991211
sg19
F60.104396820068359
sg20
F170
sa(dp258
g4
I2
sg5
(lp259
sg7
F60.754392862319946
sg8
g223
sg13
g224
sg15
(lp260
(F483
F778
tp261
asg18
F60.138153791427612
sg19
F60.754406929016113
sg20
F586
sa(dp262
g4
I2
sg5
(lp263
sg7
F61.287725925445557
sg8
g223
sg13
g224
sg15
(lp264
g254
asg18
F60.787683010101318
sg19
F61.287736892700195
sg20
F473
sa(dp265
g4
I2
sg5
(lp266
sg7
F61.471068859100342
sg8
g223
sg13
g224
sg15
(lp267
g234
asg18
F61.321040868759155
sg19
F61.471083879470825
sg20
F124
sa(dp268
g4
I2
sg5
(lp269
sg7
F61.904415845870972
sg8
g223
sg13
g224
sg15
(lp270
(F898
F134
tp271
asg18
F61.50439977645874
sg19
F61.904435873031616
sg20
F376
sa(dp272
g4
I2
sg5
(lp273
sg7
F62.287746906280518
sg8
g223
sg13
g224
sg15
(lp274
(F897
F515
tp275
asg18
F61.93775486946106
sg19
F62.287761926651001
sg20
F318
sa(dp276
g4
I2
sg5
(lp277
sg7
F62.437761783599854
sg8
g223
sg13
g224
sg15
(lp278
(F810
F739
tp279
asg18
F62.321045875549316
sg19
F62.437788963317871
sg20
F82
sa(dp280
g4
I2
sg5
(lp281
sg7
F62.554425954818726
sg8
g223
sg13
g224
sg15
(lp282
(F983
F464
tp283
asg18
F62.47105884552002
sg19
F62.554438829421997
sg20
F62
sa(dp284
g4
I2
sg5
(lp285
sg7
F62.637751817703247
sg8
g223
sg13
g224
sg15
(lp286
(F1086
F833
tp287
asg18
F62.587727785110474
sg19
F62.637765884399414
sg20
F28
sa(dp288
g4
I2
sg5
(lp289
sg7
F62.771095991134644
sg8
g223
sg13
g224
sg15
(lp290
(F468
F404
tp291
asg18
F62.671068906784058
sg19
F62.771116971969604
sg20
F68
sa(dp292
g4
I2
sg5
(lp293
sg7
F62.837910890579224
sg8
g223
sg13
g224
sg15
(lp294
(F108
F178
tp295
asg18
F62.804397821426392
sg19
F62.837921857833862
sg20
F12
sa(dp296
g4
I2
sg5
(lp297
sg7
F63.454433917999268
sg8
g223
sg13
g224
sg15
(lp298
(F731
F197
tp299
asg18
F62.871074914932251
sg19
F63.454446792602539
sg20
F559
saa(dp300
g121
(lp301
(F371
F333
tp302
asg123
(lp303
(F542
F469
tp304
asg124
S'9'
sg125
I01
sa(lp305
(dp306
g4
I3
sg5
(lp307
sg7
F65.754333972930908
sg8
g9
(g10
(S'S13'
I0
I1
tRp308
(I3
S'|'
NNNI13
I1
I0
tbS'image_130.bmp'
tRp309
sg13
(F825
F703
tp310
sg15
(lp311
(F151
F859
tp312
asg18
F65.721145868301392
sg19
F65.754352807998657
sg20
F12
sa(dp313
g4
I3
sg5
(lp314
sg7
F66.22101092338562
sg8
g309
sg13
g310
sg15
(lp315
(F266
F807
tp316
asg18
F65.787793874740601
sg19
F66.221030950546265
sg20
F401
sa(dp317
g4
I3
sg5
(lp318
sg7
F66.33767294883728
sg8
g309
sg13
g310
sg15
(lp319
(F1065
F788
tp320
asg18
F66.254445791244507
sg19
F66.337691783905029
sg20
F54
sa(dp321
g4
I3
sg5
(lp322
sg7
F66.987679004669189
sg8
g309
sg13
g310
sg15
(lp323
(F1175
F97
tp324
asg18
F66.371133804321289
sg19
F66.987692832946777
sg20
F591
sa(dp325
g4
I3
sg5
(lp326
sg7
F67.28767991065979
sg8
g309
sg13
g310
sg15
(lp327
g320
asg18
F67.021139860153198
sg19
F67.287693977355957
sg20
F241
sa(dp328
g4
I3
sg5
(lp329
sg7
F67.654349803924561
sg8
g309
sg13
g310
sg15
(lp330
(F342
F210
tp331
asg18
F67.32113790512085
sg19
F67.654362916946411
sg20
F310
sa(dp332
g4
I3
sg5
(lp333
sg7
F67.921026945114136
sg8
g309
sg13
g310
sg15
(lp334
(F655
F139
tp335
asg18
F67.687802791595459
sg19
F67.921045780181885
sg20
F210
sa(dp336
g4
I3
sg5
(lp337
sg7
F69.221037864685059
sg8
g309
sg13
g310
sg15
(lp338
(F502
F152
tp339
asg18
F67.954913854598999
sg19
F69.221047878265381
sg20
F1241
sa(dp340
g4
I3
sg5
(lp341
sg7
F69.321055889129639
sg8
g309
sg13
g310
sg15
(lp342
(F551
F470
tp343
asg18
F69.254530906677246
sg19
F69.321071863174438
sg20
F39
sa(dp344
g4
I3
sg5
(lp345
sg7
F69.837723970413208
sg8
g309
sg13
g310
sg15
(lp346
(F1063
F648
tp347
asg18
F69.354519844055176
sg19
F69.837735891342163
sg20
F464
sa(dp348
g4
I3
sg5
(lp349
sg7
F70.237722873687744
sg8
g309
sg13
g310
sg15
(lp350
(F425
F161
tp351
asg18
F69.871189832687378
sg19
F70.237734794616699
sg20
F333
sa(dp352
g4
I3
sg5
(lp353
sg7
F70.437747955322266
sg8
g309
sg13
g310
sg15
(lp354
(F1007
F366
tp355
asg18
F70.27117395401001
sg19
F70.437761783599854
sg20
F146
sa(dp356
g4
I3
sg5
(lp357
sg7
F70.53774094581604
sg8
g309
sg13
g310
sg15
(lp358
(F345
F482
tp359
asg18
F70.471181869506836
sg19
F70.537760972976685
sg20
F37
sa(dp360
g4
I3
sg5
(lp361
sg7
F70.621070861816406
sg8
g309
sg13
g310
sg15
(lp362
(F917
F322
tp363
asg18
F70.571186780929565
sg19
F70.621087789535522
sg20
F19
sa(dp364
g4
I3
sg5
(lp365
sg7
F70.787729978561401
sg8
g309
sg13
g310
sg15
(lp366
(F1048
F540
tp367
asg18
F70.65454888343811
sg19
F70.787742853164673
sg20
F107
sa(dp368
g4
I3
sg5
(lp369
sg7
F71.254403829574585
sg8
g309
sg13
g310
sg15
(lp370
(F952
F795
tp371
asg18
F70.821209907531738
sg19
F71.254415988922119
sg20
F408
sa(dp372
g4
I3
sg5
(lp373
sg7
F71.52108097076416
sg8
g309
sg13
g310
sg15
(lp374
(F317
F284
tp375
asg18
F71.287867784500122
sg19
F71.521093845367432
sg20
F209
sa(dp376
g4
I3
sg5
(lp377
sg7
F71.671080827713013
sg8
g309
sg13
g310
sg15
(lp378
(F594
F229
tp379
asg18
F71.554533958435059
sg19
F71.671092987060547
sg20
F93
sa(dp380
g4
I3
sg5
(lp381
sg7
F71.754511833190918
sg8
g309
sg13
g310
sg15
(lp382
g316
asg18
F71.704543828964233
sg19
F71.754522800445557
sg20
F20
sa(dp383
g4
I3
sg5
(lp384
sg7
F71.987756967544556
sg8
g309
sg13
g310
sg15
(lp385
(F907
F427
tp386
asg18
F71.787876844406128
sg19
F71.987770795822144
sg20
F169
sa(dp387
g4
I3
sg5
(lp388
sg7
F72.221089839935303
sg8
g309
sg13
g310
sg15
(lp389
(F709
F222
tp390
asg18
F72.021183967590332
sg19
F72.221101999282837
sg20
F169
sa(dp391
g4
I3
sg5
(lp392
sg7
F72.521099805831909
sg8
g309
sg13
g310
sg15
(lp393
g379
asg18
F72.254956007003784
sg19
F72.521109819412231
sg20
F238
sa(dp394
g4
I3
sg5
(lp395
sg7
F72.654429912567139
sg8
g309
sg13
g310
sg15
(lp396
(F1092
F90
tp397
asg18
F72.554553985595703
sg19
F72.654440879821777
sg20
F80
sa(dp398
g4
I3
sg5
(lp399
sg7
F73.554440975189209
sg8
g309
sg13
g310
sg15
(lp400
(F776
F813
tp401
asg18
F72.68790078163147
sg19
F73.554454803466797
sg20
F832
saa(dp402
g121
(lp403
(F355
F213
tp404
asg123
(lp405
(F587
F341
tp406
asg124
S'9'
sg125
I00
sa(lp407
(dp408
g4
I4
sg5
(lp409
sg7
F137.4221818447113
sg8
g9
(g10
(S'S13'
I0
I1
tRp410
(I3
S'|'
NNNI13
I1
I0
tbS'image_177.bmp'
tRp411
sg13
(F772
F681
tp412
sg15
(lp413
(F462
F657
tp414
asg18
F137.08891296386719
sg19
F137.42219686508179
sg20
F304
sa(dp415
g4
I4
sg5
(lp416
sg7
F137.55551695823669
sg8
g411
sg13
g412
sg15
(lp417
(F962
F605
tp418
asg18
F137.45552682876587
sg19
F137.55553483963013
sg20
F68
sa(dp419
g4
I4
sg5
(lp420
sg7
F137.80552077293396
sg8
g411
sg13
g412
sg15
(lp421
(F463
F296
tp422
asg18
F137.58887481689453
sg19
F137.80553078651428
sg20
F194
sa(dp423
g4
I4
sg5
(lp424
sg7
F137.92218089103699
sg8
g411
sg13
g412
sg15
(lp425
(F731
F536
tp426
asg18
F137.83891487121582
sg19
F137.92219400405884
sg20
F49
sa(dp427
g4
I4
sg5
(lp428
sg7
F138.40552878379822
sg8
g411
sg13
g412
sg15
(lp429
(F655
F103
tp430
asg18
F137.95557379722595
sg19
F138.40554189682007
sg20
F420
sa(dp431
g4
I4
sg5
(lp432
sg7
F138.5222008228302
sg8
g411
sg13
g412
sg15
(lp433
(F192
F486
tp434
asg18
F138.43892192840576
sg19
F138.52221989631653
sg20
F59
sa(dp435
g4
I4
sg5
(lp436
sg7
F138.65552878379822
sg8
g411
sg13
g412
sg15
(lp437
(F372
F300
tp438
asg18
F138.55558800697327
sg19
F138.6555438041687
sg20
F80
sa(dp439
g4
I4
sg5
(lp440
sg7
F138.75553393363953
sg8
g411
sg13
g412
sg15
(lp441
(F881
F596
tp442
asg18
F138.68890690803528
sg19
F138.7555468082428
sg20
F43
sa(dp443
g4
I4
sg5
(lp444
sg7
F139.15553593635559
sg8
g411
sg13
g412
sg15
(lp445
(F863
F459
tp446
asg18
F138.78892683982849
sg19
F139.15554690361023
sg20
F332
sa(dp447
g4
I4
sg5
(lp448
sg7
F139.52221179008484
sg8
g411
sg13
g412
sg15
(lp449
(F872
F764
tp450
asg18
F139.18932390213013
sg19
F139.52222299575806
sg20
F305
sa(dp451
g4
I4
sg5
(lp452
sg7
F139.67220497131348
sg8
g411
sg13
g412
sg15
(lp453
(F636
F327
tp454
asg18
F139.55558490753174
sg19
F139.67221689224243
sg20
F92
sa(dp455
g4
I4
sg5
(lp456
sg7
F141.30556678771973
sg8
g411
sg13
g412
sg15
(lp457
(F339
F114
tp458
asg18
F139.70559692382812
sg19
F141.30557990074158
sg20
F1575
sa(dp459
g4
I4
sg5
(lp460
sg7
F141.82224798202515
sg8
g411
sg13
g412
sg15
(lp461
(F521
F831
tp462
asg18
F141.33893394470215
sg19
F141.82226300239563
sg20
F458
sa(dp463
g4
I4
sg5
(lp464
sg7
F142.32225298881531
sg8
g411
sg13
g412
sg15
(lp465
(F607
F504
tp466
asg18
F141.85560083389282
sg19
F142.32226586341858
sg20
F442
sa(dp467
g4
I4
sg5
(lp468
sg7
F142.88892579078674
sg8
g411
sg13
g412
sg15
(lp469
(F104
F196
tp470
asg18
F142.35561680793762
sg19
F142.88893890380859
sg20
F508
sa(dp471
g4
I4
sg5
(lp472
sg7
F143.03893685340881
sg8
g411
sg13
g412
sg15
(lp473
(F467
F560
tp474
asg18
F142.92231392860413
sg19
F143.03895783424377
sg20
F84
sa(dp475
g4
I4
sg5
(lp476
sg7
F143.68893480300903
sg8
g411
sg13
g412
sg15
(lp477
(F315
F790
tp478
asg18
F143.07229685783386
sg19
F143.6889488697052
sg20
F589
sa(dp479
g4
I4
sg5
(lp480
sg7
F143.75561690330505
sg8
g411
sg13
g412
sg15
(lp481
g434
asg18
F143.72228789329529
sg19
F143.7556369304657
sg20
F11
sa(dp482
g4
I4
sg5
(lp483
sg7
F144.08894491195679
sg8
g411
sg13
g412
sg15
(lp484
(F486
F748
tp485
asg18
F143.78900790214539
sg19
F144.08895897865295
sg20
F281
sa(dp486
g4
I4
sg5
(lp487
sg7
F144.2222888469696
sg8
g411
sg13
g412
sg15
(lp488
(F1095
F428
tp489
asg18
F144.12230181694031
sg19
F144.22230792045593
sg20
F68
sa(dp490
g4
I4
sg5
(lp491
sg7
F144.28895592689514
sg8
g411
sg13
g412
sg15
(lp492
(F798
F272
tp493
asg18
F144.25567388534546
sg19
F144.28896999359131
sg20
F15
sa(dp494
g4
I4
sg5
(lp495
sg7
F145.0889618396759
sg8
g411
sg13
g412
sg15
(lp496
(F879
F674
tp497
asg18
F144.32229995727539
sg19
F145.08897495269775
sg20
F739
saa(dp498
g121
(lp499
(F269
F122
tp500
asg123
(lp501
(F904
F432
tp502
asg124
S'9'
sg125
I00
sa(lp503
(dp504
g4
I5
sg5
(lp505
sg7
F147.77228498458862
sg8
g9
(g10
(S'S13'
I0
I1
tRp506
(I3
S'|'
NNNI13
I1
I0
tbS'image_180.bmp'
tRp507
sg13
(F555
F161
tp508
sg15
(lp509
(F1103
F178
tp510
asg18
F147.43906688690186
sg19
F147.77230000495911
sg20
F304
sa(dp511
g4
I5
sg5
(lp512
sg7
F147.90561580657959
sg8
g507
sg13
g508
sg15
(lp513
(F283
F530
tp514
asg18
F147.80570888519287
sg19
F147.90562796592712
sg20
F68
sa(dp515
g4
I5
sg5
(lp516
sg7
F148.15561890602112
sg8
g507
sg13
g508
sg15
(lp517
(F1173
F505
tp518
asg18
F147.9390389919281
sg19
F148.15563297271729
sg20
F194
sa(dp519
g4
I5
sg5
(lp520
sg7
F148.27229881286621
sg8
g507
sg13
g508
sg15
(lp521
(F804
F178
tp522
asg18
F148.18906688690186
sg19
F148.27231693267822
sg20
F49
sa(dp523
g4
I5
sg5
(lp524
sg7
F148.75563383102417
sg8
g507
sg13
g508
sg15
(lp525
(F245
F215
tp526
asg18
F148.30572485923767
sg19
F148.75564384460449
sg20
F420
sa(dp527
g4
I5
sg5
(lp528
sg7
F148.87229895591736
sg8
g507
sg13
g508
sg15
(lp529
(F192
F629
tp530
asg18
F148.78903985023499
sg19
F148.87231397628784
sg20
F59
sa(dp531
g4
I5
sg5
(lp532
sg7
F149.00573682785034
sg8
g507
sg13
g508
sg15
(lp533
(F172
F258
tp534
asg18
F148.90572190284729
sg19
F149.00575280189514
sg20
F80
sa(dp535
g4
I5
sg5
(lp536
sg7
F149.10563588142395
sg8
g507
sg13
g508
sg15
(lp537
(F392
F558
tp538
asg18
F149.03909587860107
sg19
F149.10565090179443
sg20
F43
sa(dp539
g4
I5
sg5
(lp540
sg7
F149.50564098358154
sg8
g507
sg13
g508
sg15
(lp541
(F979
F492
tp542
asg18
F149.13908386230469
sg19
F149.50565481185913
sg20
F332
sa(dp543
g4
I5
sg5
(lp544
sg7
F149.87231397628784
sg8
g507
sg13
g508
sg15
(lp545
(F1000
F172
tp546
asg18
F149.53909993171692
sg19
F149.87232494354248
sg20
F305
sa(dp547
g4
I5
sg5
(lp548
sg7
F150.02231693267822
sg8
g507
sg13
g508
sg15
(lp549
(F1066
F857
tp550
asg18
F149.90575695037842
sg19
F150.02232885360718
sg20
F92
sa(dp551
g4
I5
sg5
(lp552
sg7
F151.65567779541016
sg8
g507
sg13
g508
sg15
(lp553
(F256
F788
tp554
asg18
F150.05576586723328
sg19
F151.65569186210632
sg20
F1575
sa(dp555
g4
I5
sg5
(lp556
sg7
F152.17234778404236
sg8
g507
sg13
g508
sg15
(lp557
(F676
F235
tp558
asg18
F151.68911600112915
sg19
F152.17236185073853
sg20
F458
sa(dp559
g4
I5
sg5
(lp560
sg7
F152.67235493659973
sg8
g507
sg13
g508
sg15
(lp561
(F794
F735
tp562
asg18
F152.2057797908783
sg19
F152.67236685752869
sg20
F442
sa(dp563
g4
I5
sg5
(lp564
sg7
F153.23903393745422
sg8
g507
sg13
g508
sg15
(lp565
(F597
F515
tp566
asg18
F152.70575785636902
sg19
F153.23904490470886
sg20
F508
sa(dp567
g4
I5
sg5
(lp568
sg7
F153.38903784751892
sg8
g507
sg13
g508
sg15
(lp569
(F889
F399
tp570
asg18
F153.27244997024536
sg19
F153.38905382156372
sg20
F84
sa(dp571
g4
I5
sg5
(lp572
sg7
F154.03905296325684
sg8
g507
sg13
g508
sg15
(lp573
(F1115
F271
tp574
asg18
F153.42247080802917
sg19
F154.03906893730164
sg20
F589
sa(dp575
g4
I5
sg5
(lp576
sg7
F154.10571694374084
sg8
g507
sg13
g508
sg15
(lp577
(F974
F723
tp578
asg18
F154.07246494293213
sg19
F154.10573482513428
sg20
F11
sa(dp579
g4
I5
sg5
(lp580
sg7
F154.43905282020569
sg8
g507
sg13
g508
sg15
(lp581
(F1181
F216
tp582
asg18
F154.13915181159973
sg19
F154.43906784057617
sg20
F281
sa(dp583
g4
I5
sg5
(lp584
sg7
F154.57238793373108
sg8
g507
sg13
g508
sg15
(lp585
(F1133
F789
tp586
asg18
F154.47246599197388
sg19
F154.57240200042725
sg20
F68
sa(dp587
g4
I5
sg5
(lp588
sg7
F154.63906478881836
sg8
g507
sg13
g508
sg15
(lp589
(F821
F93
tp590
asg18
F154.60582995414734
sg19
F154.63908195495605
sg20
F15
sa(dp591
g4
I5
sg5
(lp592
sg7
F155.43907189369202
sg8
g507
sg13
g508
sg15
(lp593
(F276
F623
tp594
asg18
F154.67247295379639
sg19
F155.4390869140625
sg20
F739
saa(dp595
g121
(lp596
(F959
F693
tp597
asg123
(lp598
(F898
F385
tp599
asg124
S'9'
sg125
I00
sa.