(lp1
(lp2
(dp3
S'whole_image_condition'
p4
I00
sS'planned_disp_time'
p5
F28
sS'disp_bubbles'
p6
(lp7
(F758
F326
tp8
a(F629
F460
tp9
a(F140
F479
tp10
asS'control_condition'
p11
I1
sS'chosen_bubble'
p12
(lp13
g9
asS'forced_fix_onset'
p14
F156.52896690368652
sS'saccade_offset'
p15
F156.9880359172821
sS'stim_onset'
p16
F156.7619800567627
sS'img'
p17
cnumpy.core.multiarray
scalar
p18
(cnumpy
dtype
p19
(S'S13'
I0
I1
tRp20
(I3
S'|'
NNNI13
I1
I0
tbS'image_142.bmp'
tRp21
sS'first_bubble'
p22
(F177
F714
tp23
sS'trial'
p24
I1
sS'num_bubbles'
p25
I3
sa(dp26
g4
I00
sg5
F109
sg6
(lp27
(F974
F480
tp28
a(F1068
F232
tp29
a(F1017
F665
tp30
a(F341
F586
tp31
asg11
I1
sg12
(lp32
g31
asg14
F157.67896294593811
sg15
F158.11593508720398
sg16
F157.81202793121338
sg17
g21
sg22
g23
sg24
I1
sg25
I4
sa(dp33
g4
I00
sg5
F394
sg6
(lp34
(F873
F815
tp35
asg11
I1
sg12
(lp36
g35
asg14
F158.87897300720215
sg15
F159.47560906410217
sg16
F159.29537200927734
sg17
g21
sg22
g23
sg24
I1
sg25
I1
sa(dp37
g4
I00
sg5
F29
sg6
(lp38
(F941
F625
tp39
a(F781
F463
tp40
a(F360
F330
tp41
asg11
I1
sg12
(lp42
g39
asg14
F160.19565606117249
sg15
F160.49583101272583
sg16
F160.24538588523865
sg17
g21
sg22
g23
sg24
I1
sg25
I3
sa(dp43
g4
I00
sg5
F99
sg6
(lp44
g29
a(F273
F259
tp45
a(F685
F231
tp46
a(F905
F284
tp47
asg11
I1
sg12
(lp48
g47
asg14
F161.22903490066528
sg15
F161.92797589302063
sg16
F161.36213994026184
sg17
g21
sg22
g23
sg24
I1
sg25
I4
sa(dp49
g4
I00
sg5
F125
sg6
(lp50
(F457
F289
tp51
a(F1158
F621
tp52
asg11
I1
sg12
(lp53
g52
asg14
F162.67906594276428
sg15
F163.34369993209839
sg16
F162.82877206802368
sg17
g21
sg22
g23
sg24
I1
sg25
I2
sa(dp54
g4
I00
sg5
F261
sg6
(lp55
(F396
F206
tp56
a(F894
F396
tp57
a(F1141
F110
tp58
a(F297
F375
tp59
asg11
I1
sg12
(lp60
g57
asg14
F164.01240491867065
sg15
F164.5158269405365
sg16
F164.29548597335815
sg17
g21
sg22
g23
sg24
I1
sg25
I4
sa(dp61
g4
I00
sg5
F59
sg6
(lp62
(F1181
F331
tp63
a(F423
F583
tp64
a(F707
F732
tp65
a(F845
F200
tp66
asg11
I1
sg12
(lp67
g65
asg14
F165.27911591529846
sg15
F165.55951404571533
sg16
F165.36217498779297
sg17
g21
sg22
g23
sg24
I1
sg25
I4
sa(dp68
g4
I00
sg5
F407
sg6
(lp69
(F400
F762
tp70
ag30
a(F290
F155
tp71
a(F567
F241
tp72
asg11
I1
sg12
(lp73
g71
asg14
F166.27911806106567
sg15
F181.50380110740662
sg16
F166.71219611167908
sg17
g21
sg22
g23
sg24
I1
sg25
I4
sa(dp74
g4
I00
sg5
F390
sg6
(lp75
(F424
F856
tp76
ag41
a(F864
F484
tp77
a(F711
F603
tp78
asg11
I1
sg12
(lp79
g77
asg14
F182.14601707458496
sg15
F182.75356793403625
sg16
F182.56242299079895
sg17
g21
sg22
g23
sg24
I1
sg25
I4
sa(dp80
g4
I00
sg5
F1186
sg6
(lp81
(F588
F712
tp82
a(F1087
F724
tp83
a(F560
F531
tp84
a(F238
F549
tp85
asg11
I1
sg12
(lp86
g82
asg14
F183.42938709259033
sg15
F189.44635796546936
sg16
F184.64579296112061
sg17
g21
sg22
g23
sg24
I1
sg25
I4
sa(dp87
g4
I00
sg5
F227
sg6
(lp88
g30
a(F1155
F226
tp89
ag59
asg11
I1
sg12
(lp90
g30
asg14
F190.14616990089417
sg15
F190.6237850189209
sg16
F190.39590096473694
sg17
g21
sg22
g23
sg24
I1
sg25
I3
sa(dp91
g4
I00
sg5
F56
sg6
(lp92
(F771
F224
tp93
a(F255
F464
tp94
asg11
I1
sg12
(lp95
g94
asg14
F191.34617805480957
sg15
F191.7375659942627
sg16
F191.4292209148407
sg17
g21
sg22
g23
sg24
I1
sg25
I2
sa(dp96
g4
I00
sg5
F451
sg6
(lp97
g51
a(F888
F565
tp98
a(F949
F718
tp99
a(F442
F689
tp100
a(F1068
F598
tp101
asg11
I1
sg12
(lp102
g99
asg14
F192.41285395622253
sg15
F193.32781600952148
sg16
F192.89590406417847
sg17
g21
sg22
g23
sg24
I1
sg25
I5
sa(dp103
g4
I00
sg5
F628
sg6
(lp104
(F808
F552
tp105
ag29
asg11
I1
sg12
(lp106
g105
asg14
F194.09621500968933
sg15
F194.94167709350586
sg16
F194.74596500396729
sg17
g21
sg22
g23
sg24
I1
sg25
I2
sa(dp107
g4
I00
sg5
F738
sg6
(lp108
(F193
F102
tp109
a(F826
F288
tp110
asg11
I1
sg12
(lp111
g110
asg14
F195.62957000732422
sg15
F196.69363498687744
sg16
F196.39598989486694
sg17
g21
sg22
g23
sg24
I1
sg25
I2
sa(dp112
g4
I00
sg5
F425
sg6
(lp113
(F677
F380
tp114
a(F169
F614
tp115
a(F500
F748
tp116
a(F112
F115
tp117
ag29
asg11
I1
sg12
(lp118
g116
asg14
F197.42958807945251
sg15
F198.10148000717163
sg16
F197.87936305999756
sg17
g21
sg22
g23
sg24
I1
sg25
I5
sa(dp119
g4
I00
sg5
F313
sg6
(lp120
(F632
F309
tp121
a(F1089
F865
tp122
asg11
I1
sg12
(lp123
g122
asg14
F198.81299591064453
sg15
F199.33307290077209
sg16
F199.14601492881775
sg17
g21
sg22
g23
sg24
I1
sg25
I2
sa(dp124
g4
I00
sg5
F399
sg6
(lp125
g51
a(F1001
F360
tp126
ag98
asg11
I1
sg12
(lp127
g98
asg14
F199.87961196899414
sg15
F200.54121088981628
sg16
F200.31269097328186
sg17
g21
sg22
g23
sg24
I1
sg25
I3
saa(dp128
S'right_bubble'
p129
S'no_memory_task'
p130
sS'correct'
p131
g130
sS'subject_number'
p132
S'5'
sS'left_bubble'
p133
g130
sa(lp134
(dp135
g4
I00
sg5
F53
sg6
(lp136
(F1113
F230
tp137
a(F789
F233
tp138
asg11
I1
sg12
(lp139
g138
asg14
F202.34631896018982
sg15
F203.02985310554504
sg16
F202.57942509651184
sg17
g18
(g19
(S'S13'
I0
I1
tRp140
(I3
S'|'
NNNI13
I1
I0
tbS'image_151.bmp'
tRp141
sg22
(F847
F602
tp142
sg24
I2
sg25
I2
sa(dp143
g4
I00
sg5
F161
sg6
(lp144
(F537
F865
tp145
a(F553
F117
tp146
ag137
asg11
I1
sg12
(lp147
g137
asg14
F203.64636611938477
sg15
F204.21333503723145
sg16
F203.8294620513916
sg17
g141
sg22
g142
sg24
I2
sg25
I3
sa(dp148
g4
I00
sg5
F136
sg6
(lp149
(F965
F730
tp150
a(F924
F257
tp151
asg11
I1
sg12
(lp152
g150
asg14
F204.91303610801697
sg15
F205.62740397453308
sg16
F205.07944107055664
sg17
g141
sg22
g142
sg24
I2
sg25
I2
sa(dp153
g4
I00
sg5
F492
sg6
(lp154
(F1153
F568
tp155
a(F119
F735
tp156
a(F1075
F413
tp157
asg11
I1
sg12
(lp158
g156
asg14
F206.22971701622009
sg15
F207.52128291130066
sg16
F206.74610900878906
sg17
g141
sg22
g142
sg24
I2
sg25
I3
sa(dp159
g4
I00
sg5
F39
sg6
(lp160
(F425
F475
tp161
asg11
I1
sg12
(lp162
g161
asg14
F208.22974896430969
sg15
F216.40106892585754
sg16
F208.29615092277527
sg17
g141
sg22
g142
sg24
I2
sg25
I1
sa(dp163
g4
I00
sg5
F92
sg6
(lp164
(F1117
F645
tp165
asg11
I1
sg12
(lp166
g165
asg14
F217.04655694961548
sg15
F217.36111402511597
sg16
F217.16296410560608
sg17
g141
sg22
g142
sg24
I2
sg25
I1
sa(dp167
g4
I00
sg5
F149
sg6
(lp168
(F711
F524
tp169
asg11
I1
sg12
(lp170
g169
asg14
F218.14659595489502
sg15
F218.54341888427734
sg16
F218.32964301109314
sg17
g141
sg22
g142
sg24
I2
sg25
I1
sa(dp171
g4
I00
sg5
F245
sg6
(lp172
(F828
F103
tp173
a(F133
F501
tp174
a(F1052
F719
tp175
a(F615
F702
tp176
ag151
asg11
I1
sg12
(lp177
g175
asg14
F219.1799681186676
sg15
F219.72144794464111
sg16
F219.44633388519287
sg17
g141
sg22
g142
sg24
I2
sg25
I5
sa(dp178
g4
I00
sg5
F69
sg6
(lp179
(F345
F231
tp180
a(F627
F161
tp181
a(F1002
F267
tp182
ag145
a(F726
F767
tp183
asg11
I1
sg12
(lp184
g183
asg14
F220.47994995117188
sg15
F220.8151159286499
sg16
F220.57973408699036
sg17
g141
sg22
g142
sg24
I2
sg25
I5
sa(dp185
g4
I00
sg5
F51
sg6
(lp186
(F1072
F833
tp187
a(F93
F655
tp188
asg11
I1
sg12
(lp189
g187
asg14
F221.47996091842651
sg15
F241.56271290779114
sg16
F221.56303191184998
sg17
g141
sg22
g142
sg24
I2
sg25
I2
sa(dp190
g4
I00
sg5
F314
sg6
(lp191
(F979
F459
tp192
a(F691
F643
tp193
a(F491
F618
tp194
asg11
I1
sg12
(lp195
g193
asg14
F242.31366395950317
sg15
F242.83294796943665
sg16
F242.6466760635376
sg17
g141
sg22
g142
sg24
I2
sg25
I3
sa(dp196
g4
I00
sg5
F136
sg6
(lp197
(F355
F94
tp198
a(F437
F395
tp199
ag181
asg11
I1
sg12
(lp200
g199
asg14
F243.54699397087097
sg15
F243.93541598320007
sg16
F243.71341300010681
sg17
g141
sg22
g142
sg24
I2
sg25
I3
sa(dp201
g4
I00
sg5
F291
sg6
(lp202
(F1141
F462
tp203
a(F803
F457
tp204
a(F306
F582
tp205
a(F1045
F341
tp206
a(F169
F305
tp207
asg11
I1
sg12
(lp208
g204
asg14
F244.68034911155701
sg15
F245.17730689048767
sg16
F244.99673199653625
sg17
g141
sg22
g142
sg24
I2
sg25
I5
sa(dp209
g4
I00
sg5
F135
sg6
(lp210
(F1037
F130
tp211
a(F849
F860
tp212
asg11
I1
sg12
(lp213
g212
asg14
F245.93037009239197
sg15
F246.29637002944946
sg16
F246.09679293632507
sg17
g141
sg22
g142
sg24
I2
sg25
I2
sa(dp214
g4
I00
sg5
F1212
sg6
(lp215
(F389
F586
tp216
a(F449
F140
tp217
ag145
a(F644
F295
tp218
ag173
asg11
I1
sg12
(lp219
g145
asg14
F246.88038301467896
sg15
F248.31268906593323
sg16
F248.11350607872009
sg17
g141
sg22
g142
sg24
I2
sg25
I5
sa(dp220
g4
I00
sg5
F4
sg6
(lp221
(F232
F129
tp222
ag207
asg11
I1
sg12
(lp223
g207
asg14
F248.99706196784973
sg15
F249.28294205665588
sg16
F249.03014206886292
sg17
g141
sg22
g142
sg24
I2
sg25
I2
sa(dp224
g4
I00
sg5
F327
sg6
(lp225
(F515
F726
tp226
ag203
a(F957
F181
tp227
ag205
asg11
I1
sg12
(lp228
g226
asg14
F250.01376795768738
sg15
F254.33713507652283
sg16
F250.36350393295288
sg17
g141
sg22
g142
sg24
I2
sg25
I4
sa(dp229
g4
I00
sg5
F562
sg6
(lp230
(F956
F101
tp231
ag203
a(F610
F485
tp232
asg11
I1
sg12
(lp233
g232
asg14
F254.99717807769775
sg15
F255.8062219619751
sg16
F255.58025789260864
sg17
g141
sg22
g142
sg24
I2
sg25
I3
sa(dp234
g4
I00
sg5
F90
sg6
(lp235
(F889
F529
tp236
a(F199
F392
tp237
ag203
ag206
a(F1188
F853
tp238
asg11
I1
sg12
(lp239
g236
asg14
F256.59721398353577
sg15
F256.90463399887085
sg16
F256.71359300613403
sg17
g141
sg22
g142
sg24
I2
sg25
I5
sa(dp240
g4
I00
sg5
F159
sg6
(lp241
(F214
F721
tp242
a(F863
F314
tp243
a(F519
F344
tp244
asg11
I1
sg12
(lp245
g242
asg14
F257.56388592720032
sg15
F257.95476889610291
sg16
F257.74690890312195
sg17
g141
sg22
g142
sg24
I2
sg25
I3
sa(dp246
g4
I00
sg5
F193
sg6
(lp247
(F716
F186
tp248
ag203
asg11
I1
sg12
(lp249
g248
asg14
F258.6305980682373
sg15
F259.3809769153595
sg16
F258.84695506095886
sg17
g141
sg22
g142
sg24
I2
sg25
I2
sa(dp250
g4
I00
sg5
F373
sg6
(lp251
(F666
F407
tp252
ag174
ag203
asg11
I1
sg12
(lp253
g203
asg14
F260.04725694656372
sg15
F280.44677996635437
sg16
F260.44697999954224
sg17
g141
sg22
g142
sg24
I2
sg25
I3
sa(dp254
g4
I00
sg5
F354
sg6
(lp255
(F115
F112
tp256
ag211
a(F760
F315
tp257
a(F91
F292
tp258
asg11
I1
sg12
(lp259
g257
asg14
F281.14759302139282
sg15
F281.71653008460999
sg16
F281.53070402145386
sg17
g141
sg22
g142
sg24
I2
sg25
I4
sa(dp260
g4
I00
sg5
F158
sg6
(lp261
g237
a(F1029
F521
tp262
asg11
I1
sg12
(lp263
g237
asg14
F282.5142810344696
sg15
F282.89682102203369
sg16
F282.69731497764587
sg17
g141
sg22
g142
sg24
I2
sg25
I2
sa(dp264
g4
I00
sg5
F5
sg6
(lp265
g262
ag206
ag238
a(F433
F849
tp266
asg11
I1
sg12
(lp267
g262
asg14
F283.58099007606506
sg15
F284.00282406806946
sg16
F283.6139988899231
sg17
g141
sg22
g142
sg24
I2
sg25
I4
sa(dp268
g4
I00
sg5
F360
sg6
(lp269
(F323
F457
tp270
asg11
I1
sg12
(lp271
g270
asg14
F284.63098311424255
sg15
F285.30049896240234
sg16
F285.01401901245117
sg17
g141
sg22
g142
sg24
I2
sg25
I1
saa(dp272
g129
g130
sg131
g130
sg132
S'5'
sg133
g130
sa(lp273
(dp274
g4
I00
sg5
F359
sg6
(lp275
(F1147
F226
tp276
a(F942
F804
tp277
a(F422
F259
tp278
asg11
I1
sg12
(lp279
g276
asg14
F294.51452302932739
sg15
F295.09970498085022
sg16
F294.89754390716553
sg17
g18
(g19
(S'S13'
I0
I1
tRp280
(I3
S'|'
NNNI13
I1
I0
tbS'image_192.bmp'
tRp281
sg22
(F811
F188
tp282
sg24
I3
sg25
I3
sa(dp283
g4
I00
sg5
F461
sg6
(lp284
(F799
F537
tp285
a(F658
F815
tp286
a(F631
F336
tp287
a(F342
F252
tp288
asg11
I1
sg12
(lp289
g286
asg14
F295.83114194869995
sg15
F296.65263891220093
sg16
F296.31423211097717
sg17
g281
sg22
g282
sg24
I3
sg25
I4
sa(dp290
g4
I00
sg5
F5
sg6
(lp291
(F483
F639
tp292
a(F801
F620
tp293
a(F877
F237
tp294
a(F641
F571
tp295
asg11
I1
sg12
(lp296
g293
asg14
F297.34781694412231
sg15
F297.61043810844421
sg16
F297.38090300559998
sg17
g281
sg22
g282
sg24
I3
sg25
I4
sa(dp297
g4
I00
sg5
F146
sg6
(lp298
(F821
F781
tp299
a(F883
F325
tp300
asg11
I1
sg12
(lp301
g299
asg14
F298.21454191207886
sg15
F298.57644104957581
sg16
F298.38089799880981
sg17
g281
sg22
g282
sg24
I3
sg25
I2
sa(dp302
g4
I00
sg5
F176
sg6
(lp303
(F307
F793
tp304
asg11
I1
sg12
(lp305
g304
asg14
F299.28118896484375
sg15
F299.69218111038208
sg16
F299.48090791702271
sg17
g281
sg22
g282
sg24
I3
sg25
I1
sa(dp306
g4
I00
sg5
F272
sg6
(lp307
(F104
F264
tp308
a(F471
F401
tp309
a(F1174
F137
tp310
a(F786
F711
tp311
asg11
I1
sg12
(lp312
g311
asg14
F300.29790997505188
sg15
F300.81203508377075
sg16
F300.59764289855957
sg17
g281
sg22
g282
sg24
I3
sg25
I4
sa(dp313
g4
I00
sg5
F31
sg6
(lp314
(F360
F335
tp315
asg11
I1
sg12
(lp316
g315
asg14
F301.51456999778748
sg15
F301.89665699005127
sg16
F301.56427192687988
sg17
g281
sg22
g282
sg24
I3
sg25
I1
sa(dp317
g4
I00
sg5
F10
sg6
(lp318
(F567
F214
tp319
a(F197
F763
tp320
a(F717
F545
tp321
a(F1043
F160
tp322
asg11
I1
sg12
(lp323
g321
asg14
F302.64792990684509
sg15
F302.89250588417053
sg16
F302.68102192878723
sg17
g281
sg22
g282
sg24
I3
sg25
I4
sa(dp324
g4
I00
sg5
F570
sg6
(lp325
(F568
F834
tp326
a(F1107
F673
tp327
a(F860
F399
tp328
a(F262
F857
tp329
asg11
I1
sg12
(lp330
g326
asg14
F303.53128004074097
sg15
F304.32628011703491
sg16
F304.13096904754639
sg17
g281
sg22
g282
sg24
I3
sg25
I4
sa(dp331
g4
I00
sg5
F118
sg6
(lp332
g308
a(F704
F689
tp333
a(F504
F480
tp334
a(F1114
F591
tp335
asg11
I1
sg12
(lp336
g333
asg14
F304.9813129901886
sg15
F305.36038303375244
sg16
F305.1310510635376
sg17
g281
sg22
g282
sg24
I3
sg25
I4
sa(dp337
g4
I00
sg5
F673
sg6
(lp338
(F968
F90
tp339
ag278
ag329
ag308
a(F302
F402
tp340
asg11
I1
sg12
(lp341
g329
asg14
F306.08130097389221
sg15
F307.01027488708496
sg16
F306.7810640335083
sg17
g281
sg22
g282
sg24
I3
sg25
I5
sa(dp342
g4
I00
sg5
F30
sg6
(lp343
g295
asg11
I1
sg12
(lp344
g295
asg14
F307.76472592353821
sg15
F308.03643107414246
sg16
F307.81438398361206
sg17
g281
sg22
g282
sg24
I3
sg25
I1
sa(dp345
g4
I00
sg5
F205
sg6
(lp346
(F775
F309
tp347
ag309
asg11
I1
sg12
(lp348
g309
asg14
F308.76468205451965
sg15
F309.24425292015076
sg16
F308.9977560043335
sg17
g281
sg22
g282
sg24
I3
sg25
I2
sa(dp349
g4
I00
sg5
F340
sg6
(lp350
(F707
F190
tp351
ag308
ag277
asg11
I1
sg12
(lp352
g308
asg14
F309.93135595321655
sg15
F310.93552803993225
sg16
F310.29778504371643
sg17
g281
sg22
g282
sg24
I3
sg25
I3
sa(dp353
g4
I00
sg5
F984
sg6
(lp354
g310
asg11
I1
sg12
(lp355
g310
asg14
F311.63140606880188
sg15
F313.00852608680725
sg16
F312.64782094955444
sg17
g281
sg22
g282
sg24
I3
sg25
I1
sa(dp356
g4
I00
sg5
F646
sg6
(lp357
(F1051
F491
tp358
a(F895
F865
tp359
a(F676
F405
tp360
asg11
I1
sg12
(lp361
g359
asg14
F313.66479897499084
sg15
F314.6846170425415
sg16
F314.33115792274475
sg17
g281
sg22
g282
sg24
I3
sg25
I3
sa(dp362
g4
I00
sg5
F848
sg6
(lp363
(F439
F853
tp364
asg11
I1
sg12
(lp365
g364
asg14
F315.34812808036804
sg15
F316.42028594017029
sg16
F316.21450901031494
sg17
g281
sg22
g282
sg24
I3
sg25
I1
sa(dp366
g4
I00
sg5
F122
sg6
(lp367
(F946
F192
tp368
ag347
a(F499
F152
tp369
a(F116
F367
tp370
a(F942
F463
tp371
asg11
I1
sg12
(lp372
g347
asg14
F317.18149399757385
sg15
F319.40208601951599
sg16
F317.33126306533813
sg17
g281
sg22
g282
sg24
I3
sg25
I5
sa(dp373
g4
I00
sg5
F511
sg6
(lp374
(F206
F165
tp375
a(F896
F692
tp376
asg11
I1
sg12
(lp377
g375
asg14
F320.09824299812317
sg15
F320.85820198059082
sg16
F320.63127493858337
sg17
g281
sg22
g282
sg24
I3
sg25
I2
saa(dp378
g129
g130
sg131
g130
sg132
S'5'
sg133
g130
sa(lp379
(dp380
g4
I00
sg5
F171
sg6
(lp381
(F317
F240
tp382
asg11
I1
sg12
(lp383
g382
asg14
F327.16496109962463
sg15
F328.98634195327759
sg16
F327.5480489730835
sg17
g18
(g19
(S'S13'
I0
I1
tRp384
(I3
S'|'
NNNI13
I1
I0
tbS'image_189.bmp'
tRp385
sg22
(F713
F838
tp386
sg24
I4
sg25
I1
sa(dp387
g4
I00
sg5
F232
sg6
(lp388
(F757
F617
tp389
a(F516
F702
tp390
asg11
I1
sg12
(lp391
g390
asg14
F329.74832797050476
sg15
F330.16390895843506
sg16
F329.99803709983826
sg17
g385
sg22
g386
sg24
I4
sg25
I2
sa(dp392
g4
I00
sg5
F149
sg6
(lp393
(F729
F429
tp394
a(F323
F473
tp395
a(F744
F748
tp396
a(F109
F763
tp397
asg11
I1
sg12
(lp398
g396
asg14
F330.76502394676208
sg15
F331.19006490707397
sg16
F330.94807910919189
sg17
g385
sg22
g386
sg24
I4
sg25
I4
sa(dp399
g4
I00
sg5
F265
sg6
(lp400
(F1104
F595
tp401
a(F935
F274
tp402
a(F449
F246
tp403
asg11
I1
sg12
(lp404
g401
asg14
F331.84840989112854
sg15
F332.3521249294281
sg16
F332.1480860710144
sg17
g385
sg22
g386
sg24
I4
sg25
I3
sa(dp405
g4
I00
sg5
F325
sg6
(lp406
(F465
F123
tp407
a(F1184
F301
tp408
ag402
asg11
I1
sg12
(lp409
g407
asg14
F333.06507611274719
sg15
F334.09407806396484
sg16
F333.41481399536133
sg17
g385
sg22
g386
sg24
I4
sg25
I3
sa(dp410
g4
I00
sg5
F431
sg6
(lp411
g395
asg11
I1
sg12
(lp412
g395
asg14
F334.78175902366638
sg15
F335.40984892845154
sg16
F335.23145508766174
sg17
g385
sg22
g386
sg24
I4
sg25
I1
sa(dp413
g4
I00
sg5
F372
sg6
(lp414
(F844
F395
tp415
a(F884
F603
tp416
asg11
I1
sg12
(lp417
g416
asg14
F336.0318169593811
sg15
F336.62803196907043
sg16
F336.43151688575745
sg17
g385
sg22
g386
sg24
I4
sg25
I2
sa(dp418
g4
I00
sg5
F1451
sg6
(lp419
g403
asg11
I1
sg12
(lp420
g403
asg14
F337.31515908241272
sg15
F339.04398488998413
sg16
F338.79820895195007
sg17
g385
sg22
g386
sg24
I4
sg25
I1
sa(dp421
g4
I00
sg5
F461
sg6
(lp422
(F1116
F255
tp423
a(F1069
F503
tp424
asg11
I1
sg12
(lp425
g424
asg14
F339.64850902557373
sg15
F340.3193941116333
sg16
F340.13158106803894
sg17
g385
sg22
g386
sg24
I4
sg25
I2
sa(dp426
g4
I00
sg5
F807
sg6
(lp427
(F903
F845
tp428
a(F533
F505
tp429
a(F569
F332
tp430
asg11
I1
sg12
(lp431
g429
asg14
F340.96516108512878
sg15
F342.01569294929504
sg16
F341.79823899269104
sg17
g385
sg22
g386
sg24
I4
sg25
I3
sa(dp432
g4
I00
sg5
F242
sg6
(lp433
(F410
F860
tp434
asg11
I1
sg12
(lp435
g434
asg14
F342.73190999031067
sg15
F359.44980692863464
sg16
F342.99826192855835
sg17
g385
sg22
g386
sg24
I4
sg25
I1
sa(dp436
g4
I00
sg5
F192
sg6
(lp437
(F377
F331
tp438
a(F928
F372
tp439
a(F544
F628
tp440
asg11
I1
sg12
(lp441
g440
asg14
F360.13220000267029
sg15
F360.71366190910339
sg16
F360.34853601455688
sg17
g385
sg22
g386
sg24
I4
sg25
I3
sa(dp442
g4
I00
sg5
F1144
sg6
(lp443
g408
a(F438
F783
tp444
a(F726
F217
tp445
ag402
asg11
I1
sg12
(lp446
g444
asg14
F361.39886808395386
sg15
F362.78343296051025
sg16
F362.56529211997986
sg17
g385
sg22
g386
sg24
I4
sg25
I4
saa(dp447
g129
g130
sg131
g130
sg132
S'5'
sg133
g130
sa(lp448
(dp449
g4
I00
sg5
F58
sg6
(lp450
(F334
F641
tp451
asg11
I1
sg12
(lp452
g451
asg14
F364.86557412147522
sg15
F365.30104088783264
sg16
F365.09858989715576
sg17
g18
(g19
(S'S13'
I0
I1
tRp453
(I3
S'|'
NNNI13
I1
I0
tbS'image_179.bmp'
tRp454
sg22
(F878
F436
tp455
sg24
I5
sg25
I1
sa(dp456
g4
I00
sg5
F260
sg6
(lp457
(F200
F730
tp458
a(F232
F233
tp459
a(F455
F431
tp460
a(F457
F798
tp461
a(F840
F723
tp462
asg11
I1
sg12
(lp463
g461
asg14
F366.0489330291748
sg15
F366.93416309356689
sg16
F366.3320050239563
sg17
g454
sg22
g455
sg24
I5
sg25
I5
sa(dp464
g4
I00
sg5
F277
sg6
(lp465
g458
a(F1014
F593
tp466
ag460
a(F737
F498
tp467
a(F143
F104
tp468
asg11
I1
sg12
(lp469
g458
asg14
F367.63228797912598
sg15
F368.16336488723755
sg16
F367.93199610710144
sg17
g454
sg22
g455
sg24
I5
sg25
I5
sa(dp470
g4
I00
sg5
F523
sg6
(lp471
(F375
F558
tp472
a(F493
F354
tp473
a(F100
F434
tp474
asg11
I1
sg12
(lp475
g472
asg14
F368.83227705955505
sg15
F369.62374901771545
sg16
F369.38203191757202
sg17
g454
sg22
g455
sg24
I5
sg25
I3
sa(dp476
g4
I00
sg5
F384
sg6
(lp477
(F201
F869
tp478
a(F1186
F256
tp479
asg11
I1
sg12
(lp480
g478
asg14
F370.33231210708618
sg15
F370.92935395240784
sg16
F370.74870705604553
sg17
g454
sg22
g455
sg24
I5
sg25
I2
sa(dp481
g4
I00
sg5
F1130
sg6
(lp482
(F903
F605
tp483
asg11
I1
sg12
(lp484
g483
asg14
F371.64905405044556
sg15
F373.10560703277588
sg16
F372.79872608184814
sg17
g454
sg22
g455
sg24
I5
sg25
I1
sa(dp485
g4
I00
sg5
F210
sg6
(lp486
(F281
F813
tp487
asg11
I1
sg12
(lp488
g487
asg14
F373.73238897323608
sg15
F374.36744403839111
sg16
F373.96543788909912
sg17
g454
sg22
g455
sg24
I5
sg25
I1
sa(dp489
g4
I00
sg5
F505
sg6
(lp490
(F1095
F376
tp491
ag468
a(F516
F671
tp492
a(F731
F772
tp493
asg11
I1
sg12
(lp494
g492
asg14
F375.04905009269714
sg15
F375.8092520236969
sg16
F375.58214807510376
sg17
g454
sg22
g455
sg24
I5
sg25
I4
sa(dp495
g4
I00
sg5
F13
sg6
(lp496
(F1026
F413
tp497
a(F453
F234
tp498
a(F230
F585
tp499
asg11
I1
sg12
(lp500
g499
asg14
F376.4990770816803
sg15
F376.78555202484131
sg16
F376.53215098381042
sg17
g454
sg22
g455
sg24
I5
sg25
I3
sa(dp501
g4
I00
sg5
F402
sg6
(lp502
(F573
F408
tp503
ag467
a(F139
F801
tp504
a(F633
F809
tp505
a(F1073
F789
tp506
asg11
I1
sg12
(lp507
g504
asg14
F377.48245191574097
sg15
F378.14939093589783
sg16
F377.91549611091614
sg17
g454
sg22
g455
sg24
I5
sg25
I5
sa(dp508
g4
I00
sg5
F115
sg6
(lp509
(F678
F262
tp510
asg11
I1
sg12
(lp511
g510
asg14
F378.84910011291504
sg15
F379.5618109703064
sg16
F378.98218488693237
sg17
g454
sg22
g455
sg24
I5
sg25
I1
sa(dp512
g4
I00
sg5
F57
sg6
(lp513
(F1186
F347
tp514
a(F975
F320
tp515
a(F364
F827
tp516
a(F156
F185
tp517
a(F160
F360
tp518
asg11
I1
sg12
(lp519
g516
asg14
F380.28248190879822
sg15
F380.54532694816589
sg16
F380.36557006835938
sg17
g454
sg22
g455
sg24
I5
sg25
I5
sa(dp520
g4
I00
sg5
F653
sg6
(lp521
(F801
F416
tp522
a(F657
F541
tp523
ag505
a(F105
F298
tp524
asg11
I1
sg12
(lp525
g505
asg14
F381.19914388656616
sg15
F382.06933999061584
sg16
F381.88222789764404
sg17
g454
sg22
g455
sg24
I5
sg25
I4
sa(dp526
g4
I00
sg5
F350
sg6
(lp527
(F146
F643
tp528
asg11
I1
sg12
(lp529
g528
asg14
F382.7991681098938
sg15
F383.42166805267334
sg16
F383.18224596977234
sg17
g454
sg22
g455
sg24
I5
sg25
I1
sa(dp530
g4
I00
sg5
F224
sg6
(lp531
(F986
F170
tp532
asg11
I1
sg12
(lp533
g532
asg14
F384.08252596855164
sg15
F384.72528195381165
sg16
F384.33227300643921
sg17
g454
sg22
g455
sg24
I5
sg25
I1
sa(dp534
g4
I00
sg5
F1514
sg6
(lp535
g523
a(F759
F241
tp536
a(F95
F714
tp537
ag518
a(F246
F665
tp538
asg11
I1
sg12
(lp539
g536
asg14
F385.39922189712524
sg15
F387.16501688957214
sg16
F386.93229389190674
sg17
g454
sg22
g455
sg24
I5
sg25
I5
saa(dp540
g129
g130
sg131
g130
sg132
S'5'
sg133
g130
sa(lp541
(dp542
g4
I00
sg5
F173
sg6
(lp543
(F447
F346
tp544
a(F833
F539
tp545
a(F401
F797
tp546
a(F204
F765
tp547
asg11
I1
sg12
(lp548
g546
asg14
F389.21595811843872
sg15
F389.68076395988464
sg16
F389.43232488632202
sg17
g18
(g19
(S'S13'
I0
I1
tRp549
(I3
S'|'
NNNI13
I1
I0
tbS'image_158.bmp'
tRp550
sg22
(F525
F695
tp551
sg24
I6
sg25
I4
sa(dp552
g4
I00
sg5
F70
sg6
(lp553
(F1094
F344
tp554
ag547
a(F713
F469
tp555
a(F455
F454
tp556
a(F688
F140
tp557
asg11
I1
sg12
(lp558
g555
asg14
F390.34930491447449
sg15
F390.67172789573669
sg16
F390.44904804229736
sg17
g550
sg22
g551
sg24
I6
sg25
I5
sa(dp559
g4
I00
sg5
F379
sg6
(lp560
(F305
F117
tp561
a(F989
F393
tp562
asg11
I1
sg12
(lp563
g562
asg14
F391.33265209197998
sg15
F391.97928690910339
sg16
F391.73240900039673
sg17
g550
sg22
g551
sg24
I6
sg25
I2
sa(dp564
g4
I00
sg5
F73
sg6
(lp565
(F133
F117
tp566
a(F569
F439
tp567
asg11
I1
sg12
(lp568
g567
asg14
F392.69931793212891
sg15
F392.97284507751465
sg16
F392.7990870475769
sg17
g550
sg22
g551
sg24
I6
sg25
I2
sa(dp569
g4
I00
sg5
F165
sg6
(lp570
g547
a(F889
F783
tp571
a(F405
F93
tp572
asg11
I1
sg12
(lp573
g571
asg14
F393.54934811592102
sg15
F394.13920092582703
sg16
F393.73239803314209
sg17
g550
sg22
g551
sg24
I6
sg25
I3
sa(dp574
g4
I00
sg5
F112
sg6
(lp575
(F546
F805
tp576
ag566
asg11
I1
sg12
(lp577
g576
asg14
F394.86602711677551
sg15
F395.17312598228455
sg16
F394.99911189079285
sg17
g550
sg22
g551
sg24
I6
sg25
I2
sa(dp578
g4
I00
sg5
F2144
sg6
(lp579
(F1160
F210
tp580
a(F864
F265
tp581
ag566
asg11
I1
sg12
(lp582
g581
asg14
F395.86606097221375
sg15
F398.36551308631897
sg16
F398.03255105018616
sg17
g550
sg22
g551
sg24
I6
sg25
I3
sa(dp583
g4
I00
sg5
F1176
sg6
(lp584
(F205
F435
tp585
a(F575
F610
tp586
a(F1164
F293
tp587
ag566
a(F132
F842
tp588
asg11
I1
sg12
(lp589
g588
asg14
F399.08279299736023
sg15
F400.64285898208618
sg16
F400.28252911567688
sg17
g550
sg22
g551
sg24
I6
sg25
I5
sa(dp590
g4
I00
sg5
F16
sg6
(lp591
(F256
F640
tp592
a(F1072
F269
tp593
ag561
a(F625
F96
tp594
a(F831
F462
tp595
asg11
I1
sg12
(lp596
g592
asg14
F401.29945611953735
sg15
F401.5690450668335
sg16
F401.34924602508545
sg17
g550
sg22
g551
sg24
I6
sg25
I5
sa(dp597
g4
I00
sg5
F443
sg6
(lp598
(F472
F848
tp599
a(F768
F199
tp600
asg11
I1
sg12
(lp601
g599
asg14
F402.24947595596313
sg15
F402.95368003845215
sg16
F402.7158739566803
sg17
g550
sg22
g551
sg24
I6
sg25
I2
sa(dp602
g4
I00
sg5
F791
sg6
(lp603
(F807
F387
tp604
asg11
I1
sg12
(lp605
g604
asg14
F403.68283700942993
sg15
F404.75677394866943
sg16
F404.49923706054688
sg17
g550
sg22
g551
sg24
I6
sg25
I1
sa(dp606
g4
I00
sg5
F598
sg6
(lp607
(F1127
F826
tp608
a(F1025
F703
tp609
asg11
I1
sg12
(lp610
g608
asg14
F405.53286600112915
sg15
F406.38136911392212
sg16
F406.18257904052734
sg17
g550
sg22
g551
sg24
I6
sg25
I2
saa(dp611
g129
g130
sg131
g130
sg132
S'5'
sg133
g130
sa(lp612
(dp613
g4
I00
sg5
F163
sg6
(lp614
(F754
F861
tp615
a(F1116
F831
tp616
a(F299
F446
tp617
a(F818
F90
tp618
a(F1005
F276
tp619
asg11
I1
sg12
(lp620
g615
asg14
F410.11627197265625
sg15
F410.61698889732361
sg16
F410.29937195777893
sg17
g18
(g19
(S'S13'
I0
I1
tRp621
(I3
S'|'
NNNI13
I1
I0
tbS'image_164.bmp'
tRp622
sg22
(F649
F530
tp623
sg24
I7
sg25
I5
sa(dp624
g4
I00
sg5
F370
sg6
(lp625
(F903
F500
tp626
a(F1085
F546
tp627
a(F995
F754
tp628
a(F397
F96
tp629
a(F521
F354
tp630
asg11
I1
sg12
(lp631
g628
asg14
F411.16628503799438
sg15
F411.75080490112305
sg16
F411.56605100631714
sg17
g622
sg22
g623
sg24
I7
sg25
I5
sa(dp632
g4
I00
sg5
F51
sg6
(lp633
(F995
F140
tp634
asg11
I1
sg12
(lp635
g634
asg14
F412.4830060005188
sg15
F413.07121300697327
sg16
F412.56607508659363
sg17
g622
sg22
g623
sg24
I7
sg25
I1
sa(dp636
g4
I00
sg5
F61
sg6
(lp637
(F748
F768
tp638
ag618
a(F336
F525
tp639
a(F146
F448
tp640
ag627
asg11
I1
sg12
(lp641
g638
asg14
F413.76634907722473
sg15
F414.28504705429077
sg16
F413.84939694404602
sg17
g622
sg22
g623
sg24
I7
sg25
I5
sa(dp642
g4
I00
sg5
F18
sg6
(lp643
(F1182
F402
tp644
a(F543
F473
tp645
a(F1150
F693
tp646
a(F1139
F116
tp647
asg11
I1
sg12
(lp648
g645
asg14
F414.94970488548279
sg15
F415.52332901954651
sg16
F414.99944090843201
sg17
g622
sg22
g623
sg24
I7
sg25
I4
sa(dp649
g4
I00
sg5
F151
sg6
(lp650
(F804
F643
tp651
a(F571
F824
tp652
a(F1094
F397
tp653
asg11
I1
sg12
(lp654
g651
asg14
F416.16640996932983
sg15
F416.54114198684692
sg16
F416.34943509101868
sg17
g622
sg22
g623
sg24
I7
sg25
I3
sa(dp655
g4
I00
sg5
F1195
sg6
(lp656
g616
asg11
I1
sg12
(lp657
g616
asg14
F417.18304300308228
sg15
F418.87489199638367
sg16
F418.39946603775024
sg17
g622
sg22
g623
sg24
I7
sg25
I1
sa(dp658
g4
I00
sg5
F265
sg6
(lp659
(F512
F224
tp660
a(F107
F737
tp661
ag644
a(F893
F133
tp662
a(F1165
F608
tp663
asg11
I1
sg12
(lp664
g644
asg14
F419.64975905418396
sg15
F420.81904697418213
sg16
F419.94954204559326
sg17
g622
sg22
g623
sg24
I7
sg25
I5
sa(dp665
g4
I00
sg5
F911
sg6
(lp666
(F1037
F680
tp667
a(F757
F331
tp668
asg11
I1
sg12
(lp669
g667
asg14
F421.5497989654541
sg15
F422.69705510139465
sg16
F422.48282408714294
sg17
g622
sg22
g623
sg24
I7
sg25
I2
sa(dp670
g4
I00
sg5
F629
sg6
(lp671
(F1066
F209
tp672
a(F838
F440
tp673
ag661
a(F848
F740
tp674
a(F1177
F529
tp675
asg11
I1
sg12
(lp676
g673
asg14
F423.39981198310852
sg15
F424.2368540763855
sg16
F424.04957008361816
sg17
g622
sg22
g623
sg24
I7
sg25
I5
sa(dp677
g4
I00
sg5
F59
sg6
(lp678
(F205
F597
tp679
asg11
I1
sg12
(lp680
g679
asg14
F424.89983797073364
sg15
F425.65721201896667
sg16
F424.9828770160675
sg17
g622
sg22
g623
sg24
I7
sg25
I1
sa(dp681
g4
I00
sg5
F317
sg6
(lp682
g653
a(F924
F231
tp683
ag661
asg11
I1
sg12
(lp684
g653
asg14
F426.33319211006165
sg15
F427.20671510696411
sg16
F426.68293905258179
sg17
g622
sg22
g623
sg24
I7
sg25
I3
sa(dp685
g4
I00
sg5
F202
sg6
(lp686
(F894
F652
tp687
ag663
a(F114
F370
tp688
asg11
I1
sg12
(lp689
g687
asg14
F427.86657810211182
sg15
F428.39712905883789
sg16
F428.09959197044373
sg17
g622
sg22
g623
sg24
I7
sg25
I3
sa(dp690
g4
I00
sg5
F105
sg6
(lp691
(F989
F867
tp692
ag661
a(F617
F615
tp693
asg11
I1
sg12
(lp694
g693
asg14
F429.08326697349548
sg15
F429.39895009994507
sg16
F429.21628308296204
sg17
g622
sg22
g623
sg24
I7
sg25
I3
sa(dp695
g4
I00
sg5
F379
sg6
(lp696
g683
ag646
a(F425
F567
tp697
a(F669
F432
tp698
asg11
I1
sg12
(lp699
g697
asg14
F430.01659107208252
sg15
F430.6084930896759
sg16
F430.41632390022278
sg17
g622
sg22
g623
sg24
I7
sg25
I4
sa(dp700
g4
I00
sg5
F224
sg6
(lp701
(F386
F363
tp702
a(F149
F187
tp703
a(F273
F838
tp704
a(F645
F846
tp705
a(F1088
F744
tp706
asg11
I1
sg12
(lp707
g704
asg14
F431.23328590393066
sg15
F431.69273400306702
sg16
F431.48301911354065
sg17
g622
sg22
g623
sg24
I7
sg25
I5
sa(dp708
g4
I00
sg5
F48
sg6
(lp709
g661
ag668
a(F467
F766
tp710
asg11
I1
sg12
(lp711
g661
asg14
F432.38329601287842
sg15
F432.91477489471436
sg16
F432.44965600967407
sg17
g622
sg22
g623
sg24
I7
sg25
I3
sa(dp712
g4
I00
sg5
F42
sg6
(lp713
(F173
F520
tp714
ag639
asg11
I1
sg12
(lp715
g639
asg14
F433.63331699371338
sg15
F433.924880027771
sg16
F433.69967603683472
sg17
g622
sg22
g623
sg24
I7
sg25
I2
sa(dp716
g4
I00
sg5
F183
sg6
(lp717
g660
a(F418
F836
tp718
asg11
I1
sg12
(lp719
g660
asg14
F434.65000510215759
sg15
F435.12833189964294
sg16
F434.86640405654907
sg17
g622
sg22
g623
sg24
I7
sg25
I2
sa(dp720
g4
I00
sg5
F219
sg6
(lp721
(F172
F785
tp722
a(F105
F593
tp723
a(F1148
F223
tp724
a(F282
F592
tp725
asg11
I1
sg12
(lp726
g725
asg14
F435.83333802223206
sg15
F436.33447790145874
sg16
F436.0830819606781
sg17
g622
sg22
g623
sg24
I7
sg25
I4
sa(dp727
g4
I00
sg5
F470
sg6
(lp728
g722
ag683
a(F880
F810
tp729
a(F507
F108
tp730
asg11
I1
sg12
(lp731
g729
asg14
F437.05001997947693
sg15
F437.75709009170532
sg16
F437.54981088638306
sg17
g622
sg22
g623
sg24
I7
sg25
I4
saa(dp732
g129
g130
sg131
g130
sg132
S'5'
sg133
g130
sa(lp733
(dp734
g4
I00
sg5
F470
sg6
(lp735
(F1124
F741
tp736
a(F374
F686
tp737
a(F972
F559
tp738
a(F335
F478
tp739
asg11
I1
sg12
(lp740
g738
asg14
F439.56676292419434
sg15
F440.25645399093628
sg16
F440.0664370059967
sg17
g18
(g19
(S'S13'
I0
I1
tRp741
(I3
S'|'
NNNI13
I1
I0
tbS'image_177.bmp'
tRp742
sg22
(F773
F380
tp743
sg24
I8
sg25
I4
sa(dp744
g4
I00
sg5
F356
sg6
(lp745
(F761
F699
tp746
asg11
I1
sg12
(lp747
g746
asg14
F440.83344697952271
sg15
F442.3069748878479
sg16
F441.21648693084717
sg17
g742
sg22
g743
sg24
I8
sg25
I1
sa(dp748
g4
I00
sg5
F1005
sg6
(lp749
(F338
F112
tp750
asg11
I1
sg12
(lp751
g750
asg14
F443.05011296272278
sg15
F444.34911894798279
sg16
F444.08320903778076
sg17
g742
sg22
g743
sg24
I8
sg25
I1
sa(dp752
g4
I00
sg5
F157
sg6
(lp753
(F307
F280
tp754
a(F920
F627
tp755
asg11
I1
sg12
(lp756
g754
asg14
F444.98350405693054
sg15
F465.16715097427368
sg16
F445.16655206680298
sg17
g742
sg22
g743
sg24
I8
sg25
I2
sa(dp757
g4
I00
sg5
F564
sg6
(lp758
(F976
F452
tp759
a(F844
F332
tp760
a(F410
F141
tp761
asg11
I1
sg12
(lp762
g760
asg14
F465.95047807693481
sg15
F466.74031400680542
sg16
F466.53355407714844
sg17
g742
sg22
g743
sg24
I8
sg25
I3
sa(dp763
g4
I00
sg5
F358
sg6
(lp764
(F587
F857
tp765
a(F1057
F498
tp766
a(F410
F867
tp767
a(F1094
F828
tp768
asg11
I1
sg12
(lp769
g767
asg14
F467.43387198448181
sg15
F468.2920548915863
sg16
F467.81689691543579
sg17
g742
sg22
g743
sg24
I8
sg25
I4
sa(dp770
g4
I00
sg5
F167
sg6
(lp771
(F273
F742
tp772
a(F135
F855
tp773
asg11
I1
sg12
(lp774
g773
asg14
F468.93389201164246
sg15
F469.36636900901794
sg16
F469.13357400894165
sg17
g742
sg22
g743
sg24
I8
sg25
I2
sa(dp775
g4
I00
sg5
F68
sg6
(lp776
(F245
F112
tp777
a(F869
F824
tp778
a(F871
F113
tp779
a(F489
F105
tp780
asg11
I1
sg12
(lp781
g778
asg14
F470.10053300857544
sg15
F470.4105429649353
sg16
F470.20032095909119
sg17
g742
sg22
g743
sg24
I8
sg25
I4
sa(dp782
g4
I00
sg5
F194
sg6
(lp783
(F718
F524
tp784
asg11
I1
sg12
(lp785
g784
asg14
F471.05055594444275
sg15
F471.45247101783752
sg16
F471.26696395874023
sg17
g742
sg22
g743
sg24
I8
sg25
I1
sa(dp786
g4
I00
sg5
F325
sg6
(lp787
(F436
F357
tp788
a(F575
F769
tp789
ag759
a(F733
F150
tp790
asg11
I1
sg12
(lp791
g788
asg14
F472.06727290153503
sg15
F472.62419009208679
sg16
F472.41698908805847
sg17
g742
sg22
g743
sg24
I8
sg25
I4
sa(dp792
g4
I00
sg5
F88
sg6
(lp793
g772
asg11
I1
sg12
(lp794
g772
asg14
F473.23396110534668
sg15
F473.69861197471619
sg16
F473.35028910636902
sg17
g742
sg22
g743
sg24
I8
sg25
I1
sa(dp795
g4
I00
sg5
F817
sg6
(lp796
(F897
F517
tp797
a(F618
F489
tp798
asg11
I1
sg12
(lp799
g798
asg14
F474.35061311721802
sg15
F475.3940908908844
sg16
F475.20033502578735
sg17
g742
sg22
g743
sg24
I8
sg25
I2
sa(dp800
g4
I00
sg5
F80
sg6
(lp801
(F1013
F672
tp802
a(F791
F778
tp803
a(F235
F395
tp804
ag790
asg11
I1
sg12
(lp805
g803
asg14
F476.06733393669128
sg15
F476.39815402030945
sg16
F476.16705703735352
sg17
g742
sg22
g743
sg24
I8
sg25
I4
sa(dp806
g4
I00
sg5
F755
sg6
(lp807
(F472
F686
tp808
ag797
a(F181
F554
tp809
a(F1148
F224
tp810
asg11
I1
sg12
(lp811
g808
asg14
F477.1506609916687
sg15
F478.13050007820129
sg16
F477.93376207351685
sg17
g742
sg22
g743
sg24
I8
sg25
I4
sa(dp812
g4
I00
sg5
F154
sg6
(lp813
g809
a(F671
F841
tp814
ag780
ag739
asg11
I1
sg12
(lp815
g739
asg14
F478.81733298301697
sg15
F479.19041991233826
sg16
F479.00043296813965
sg17
g742
sg22
g743
sg24
I8
sg25
I4
sa(dp816
g4
I00
sg5
F306
sg6
(lp817
(F820
F637
tp818
a(F563
F327
tp819
a(F96
F700
tp820
asg11
I1
sg12
(lp821
g818
asg14
F479.86738801002502
sg15
F480.38215804100037
sg16
F480.20040392875671
sg17
g742
sg22
g743
sg24
I8
sg25
I3
sa(dp822
g4
I00
sg5
F207
sg6
(lp823
(F654
F746
tp824
asg11
I1
sg12
(lp825
g824
asg14
F481.06742596626282
sg15
F481.56015491485596
sg16
F481.30046200752258
sg17
g742
sg22
g743
sg24
I8
sg25
I1
saa(dp826
g129
g130
sg131
g130
sg132
S'5'
sg133
g130
sa(lp827
(dp828
g4
I00
sg5
F384
sg6
(lp829
(F350
F221
tp830
a(F554
F267
tp831
a(F893
F641
tp832
a(F1105
F243
tp833
a(F1077
F709
tp834
asg11
I1
sg12
(lp835
g832
asg14
F483.80076503753662
sg15
F484.45846104621887
sg16
F484.21719002723694
sg17
g18
(g19
(S'S13'
I0
I1
tRp836
(I3
S'|'
NNNI13
I1
I0
tbS'image_132.bmp'
tRp837
sg22
(F932
F804
tp838
sg24
I9
sg25
I5
sa(dp839
g4
I00
sg5
F239
sg6
(lp840
(F1052
F510
tp841
a(F762
F273
tp842
a(F455
F686
tp843
asg11
I1
sg12
(lp844
g843
asg14
F485.16746997833252
sg15
F485.59838199615479
sg16
F485.43385601043701
sg17
g837
sg22
g838
sg24
I9
sg25
I3
sa(dp845
g4
I00
sg5
F35
sg6
(lp846
(F746
F424
tp847
a(F294
F806
tp848
asg11
I1
sg12
(lp849
g848
asg14
F486.20082902908325
sg15
F486.5264298915863
sg16
F486.26716709136963
sg17
g837
sg22
g838
sg24
I9
sg25
I2
sa(dp850
g4
I00
sg5
F370
sg6
(lp851
(F779
F742
tp852
a(F665
F367
tp853
a(F179
F481
tp854
a(F282
F328
tp855
a(F1188
F548
tp856
asg11
I1
sg12
(lp857
g852
asg14
F487.26746106147766
sg15
F487.87020206451416
sg16
F487.66723108291626
sg17
g837
sg22
g838
sg24
I9
sg25
I5
sa(dp858
g4
I00
sg5
F23
sg6
(lp859
(F624
F229
tp860
a(F539
F654
tp861
a(F974
F302
tp862
asg11
I1
sg12
(lp863
g861
asg14
F488.51753997802734
sg15
F488.74625897407532
sg16
F488.5672550201416
sg17
g837
sg22
g838
sg24
I9
sg25
I3
sa(dp864
g4
I00
sg5
F44
sg6
(lp865
(F1013
F825
tp866
ag831
asg11
I1
sg12
(lp867
g866
asg14
F489.43419599533081
sg15
F489.74208211898804
sg16
F489.50058603286743
sg17
g837
sg22
g838
sg24
I9
sg25
I2
sa(dp868
g4
I00
sg5
F60
sg6
(lp869
(F1109
F375
tp870
ag854
ag860
asg11
I1
sg12
(lp871
g860
asg14
F490.41756796836853
sg15
F490.98846292495728
sg16
F490.50060391426086
sg17
g837
sg22
g838
sg24
I9
sg25
I3
sa(dp872
g4
I00
sg5
F167
sg6
(lp873
(F109
F517
tp874
a(F821
F456
tp875
a(F282
F577
tp876
asg11
I1
sg12
(lp877
g876
asg14
F491.63421511650085
sg15
F498.55586695671082
sg16
F491.8339569568634
sg17
g837
sg22
g838
sg24
I9
sg25
I3
sa(dp878
g4
I00
sg5
F878
sg6
(lp879
(F524
F781
tp880
a(F845
F540
tp881
a(F677
F167
tp882
asg11
I1
sg12
(lp883
g880
asg14
F499.25098896026611
sg15
F500.35745596885681
sg16
F500.1507511138916
sg17
g837
sg22
g838
sg24
I9
sg25
I3
sa(dp884
g4
I00
sg5
F358
sg6
(lp885
(F603
F458
tp886
asg11
I1
sg12
(lp887
g886
asg14
F501.16770792007446
sg15
F502.01221203804016
sg16
F501.5507550239563
sg17
g837
sg22
g838
sg24
I9
sg25
I1
sa(dp888
g4
I00
sg5
F39
sg6
(lp889
(F799
F355
tp890
asg11
I1
sg12
(lp891
g890
asg14
F502.73442411422729
sg15
F503.01797294616699
sg16
F502.80078601837158
sg17
g837
sg22
g838
sg24
I9
sg25
I1
sa(dp892
g4
I00
sg5
F91
sg6
(lp893
(F673
F868
tp894
ag854
ag841
a(F1189
F248
tp895
a(F355
F858
tp896
asg11
I1
sg12
(lp897
g894
asg14
F503.65107798576355
sg15
F503.95190906524658
sg16
F503.76747989654541
sg17
g837
sg22
g838
sg24
I9
sg25
I5
sa(dp898
g4
I00
sg5
F388
sg6
(lp899
(F1003
F644
tp900
asg11
I1
sg12
(lp901
g900
asg14
F504.58444309234619
sg15
F505.23011302947998
sg16
F505.00082612037659
sg17
g837
sg22
g838
sg24
I9
sg25
I1
sa(dp902
g4
I00
sg5
F34
sg6
(lp903
g856
a(F452
F175
tp904
a(F1007
F100
tp905
ag854
asg11
I1
sg12
(lp906
g904
asg14
F505.88447594642639
sg15
F506.40220308303833
sg16
F505.95088601112366
sg17
g837
sg22
g838
sg24
I9
sg25
I4
sa(dp907
g4
I00
sg5
F273
sg6
(lp908
g905
a(F527
F340
tp909
asg11
I1
sg12
(lp910
g909
asg14
F507.08446502685547
sg15
F507.99033093452454
sg16
F507.38422989845276
sg17
g837
sg22
g838
sg24
I9
sg25
I2
sa(dp911
g4
I00
sg5
F38
sg6
(lp912
(F492
F498
tp913
a(F814
F850
tp914
a(F1167
F775
tp915
asg11
I1
sg12
(lp916
g914
asg14
F508.71784496307373
sg15
F509.04586005210876
sg16
F508.78421711921692
sg17
g837
sg22
g838
sg24
I9
sg25
I3
sa(dp917
g4
I00
sg5
F58
sg6
(lp918
g854
a(F1091
F862
tp919
a(F451
F857
tp920
a(F423
F324
tp921
asg11
I1
sg12
(lp922
g920
asg14
F509.75119400024414
sg15
F510.26234412193298
sg16
F509.83421897888184
sg17
g837
sg22
g838
sg24
I9
sg25
I4
sa(dp923
g4
I00
sg5
F114
sg6
(lp924
g834
asg11
I1
sg12
(lp925
g834
asg14
F511.00123596191406
sg15
F511.32975912094116
sg16
F511.13424301147461
sg17
g837
sg22
g838
sg24
I9
sg25
I1
sa(dp926
g4
I00
sg5
F468
sg6
(lp927
g842
a(F617
F813
tp928
ag841
asg11
I1
sg12
(lp929
g928
asg14
F512.03455090522766
sg15
F512.75573301315308
sg16
F512.53428602218628
sg17
g837
sg22
g838
sg24
I9
sg25
I3
sa(dp930
g4
I00
sg5
F356
sg6
(lp931
(F752
F145
tp932
ag896
ag915
asg11
I1
sg12
(lp933
g896
asg14
F513.41790795326233
sg15
F514.07163405418396
sg16
F513.80098390579224
sg17
g837
sg22
g838
sg24
I9
sg25
I3
sa(dp934
g4
I00
sg5
F476
sg6
(lp935
(F857
F182
tp936
a(F928
F368
tp937
a(F173
F213
tp938
a(F540
F573
tp939
asg11
I1
sg12
(lp940
g939
asg14
F514.86793088912964
sg15
F515.55546903610229
sg16
F515.36767911911011
sg17
g837
sg22
g838
sg24
I9
sg25
I4
sa(dp941
g4
I00
sg5
F121
sg6
(lp942
g854
asg11
I1
sg12
(lp943
g854
asg14
F516.23463010787964
sg15
F517.02010703086853
sg16
F516.38432097434998
sg17
g837
sg22
g838
sg24
I9
sg25
I1
sa(dp944
g4
I00
sg5
F468
sg6
(lp945
(F681
F520
tp946
a(F389
F603
tp947
a(F911
F257
tp948
asg11
I1
sg12
(lp949
g947
asg14
F517.80128788948059
sg15
F518.30193305015564
sg16
F518.30103993415833
sg17
g837
sg22
g838
sg24
I9
sg25
I3
sa(dp950
g4
I00
sg5
F317
sg6
(lp951
g856
ag853
a(F631
F635
tp952
ag919
a(F1052
F304
tp953
asg11
I1
sg12
(lp954
g952
asg14
F519.06800508499146
sg15
F519.61157989501953
sg16
F519.41773390769958
sg17
g837
sg22
g838
sg24
I9
sg25
I5
sa(dp955
g4
I00
sg5
F330
sg6
(lp956
g936
a(F249
F189
tp957
asg11
I1
sg12
(lp958
g936
asg14
F520.23467803001404
sg15
F521.0439920425415
sg16
F520.58443808555603
sg17
g837
sg22
g838
sg24
I9
sg25
I2
saa(dp959
g129
g130
sg131
g130
sg132
S'5'
sg133
g130
sa(lp960
(dp961
g4
I00
sg5
F477
sg6
(lp962
(F421
F298
tp963
asg11
I1
sg12
(lp964
g963
asg14
F522.71805906295776
sg15
F523.40769410133362
sg16
F523.21775698661804
sg17
g18
(g19
(S'S13'
I0
I1
tRp965
(I3
S'|'
NNNI13
I1
I0
tbS'image_174.bmp'
tRp966
sg22
(F1074
F130
tp967
sg24
I10
sg25
I1
sa(dp968
g4
I00
sg5
F30
sg6
(lp969
(F283
F852
tp970
asg11
I1
sg12
(lp971
g970
asg14
F524.0847499370575
sg15
F524.30367493629456
sg16
F524.134437084198
sg17
g966
sg22
g967
sg24
I10
sg25
I1
sa(dp972
g4
I00
sg5
F684
sg6
(lp973
(F530
F393
tp974
a(F857
F477
tp975
a(F300
F332
tp976
a(F659
F632
tp977
asg11
I1
sg12
(lp978
g977
asg14
F524.95141291618347
sg15
F525.86147904396057
sg16
F525.66781401634216
sg17
g966
sg22
g967
sg24
I10
sg25
I4
sa(dp979
g4
I00
sg5
F645
sg6
(lp980
(F649
F397
tp981
a(F1156
F258
tp982
a(F1007
F492
tp983
a(F429
F581
tp984
a(F498
F315
tp985
asg11
I1
sg12
(lp986
g984
asg14
F526.56811094284058
sg15
F527.42344808578491
sg16
F527.23452806472778
sg17
g966
sg22
g967
sg24
I10
sg25
I5
sa(dp987
g4
I00
sg5
F266
sg6
(lp988
g976
asg11
I1
sg12
(lp989
g976
asg14
F528.16814398765564
sg15
F529.4235680103302
sg16
F528.46783804893494
sg17
g966
sg22
g967
sg24
I10
sg25
I1
sa(dp990
g4
I00
sg5
F364
sg6
(lp991
(F829
F731
tp992
a(F999
F195
tp993
a(F1044
F841
tp994
a(F945
F545
tp995
a(F523
F711
tp996
asg11
I1
sg12
(lp997
g995
asg14
F530.1015350818634
sg15
F530.83375096321106
sg16
F530.4845609664917
sg17
g966
sg22
g967
sg24
I10
sg25
I5
sa(dp998
g4
I00
sg5
F868
sg6
(lp999
(F153
F854
tp1000
a(F913
F114
tp1001
a(F548
F490
tp1002
a(F475
F234
tp1003
asg11
I1
sg12
(lp1004
g1002
asg14
F531.55151510238647
sg15
F532.65587401390076
sg16
F532.45128393173218
sg17
g966
sg22
g967
sg24
I10
sg25
I4
sa(dp1005
g4
I00
sg5
F33
sg6
(lp1006
g992
a(F207
F664
tp1007
a(F163
F96
tp1008
a(F251
F513
tp1009
a(F1164
F646
tp1010
asg11
I1
sg12
(lp1011
g1007
asg14
F533.30155611038208
sg15
F533.58734011650085
sg16
F533.36795592308044
sg17
g966
sg22
g967
sg24
I10
sg25
I5
sa(dp1012
g4
I00
sg5
F97
sg6
(lp1013
(F313
F446
tp1014
a(F778
F139
tp1015
a(F579
F306
tp1016
a(F947
F666
tp1017
ag975
asg11
I1
sg12
(lp1018
g1017
asg14
F534.25158095359802
sg15
F534.71976494789124
sg16
F534.36796092987061
sg17
g966
sg22
g967
sg24
I10
sg25
I5
sa(dp1019
g4
I00
sg5
F170
sg6
(lp1020
g1014
a(F390
F695
tp1021
ag1016
a(F783
F556
tp1022
asg11
I1
sg12
(lp1023
g1022
asg14
F535.35157203674316
sg15
F535.76123905181885
sg16
F535.55127811431885
sg17
g966
sg22
g967
sg24
I10
sg25
I4
sa(dp1024
g4
I00
sg5
F402
sg6
(lp1025
(F949
F414
tp1026
a(F454
F476
tp1027
a(F1159
F740
tp1028
a(F632
F856
tp1029
asg11
I1
sg12
(lp1030
g1029
asg14
F536.41828203201294
sg15
F537.11374592781067
sg16
F536.85130596160889
sg17
g966
sg22
g967
sg24
I10
sg25
I4
sa(dp1031
g4
I00
sg5
F231
sg6
(lp1032
(F971
F330
tp1033
a(F766
F633
tp1034
a(F538
F579
tp1035
a(F352
F561
tp1036
a(F749
F219
tp1037
asg11
I1
sg12
(lp1038
g1034
asg14
F537.85161995887756
sg15
F538.3337550163269
sg16
F538.10135102272034
sg17
g966
sg22
g967
sg24
I10
sg25
I5
sa(dp1039
g4
I00
sg5
F113
sg6
(lp1040
(F857
F285
tp1041
a(F947
F816
tp1042
a(F665
F304
tp1043
asg11
I1
sg12
(lp1044
g1042
asg14
F539.06829905509949
sg15
F539.75608611106873
sg16
F539.20135498046875
sg17
g966
sg22
g967
sg24
I10
sg25
I3
sa(dp1045
g4
I00
sg5
F27
sg6
(lp1046
(F712
F757
tp1047
ag1033
a(F282
F628
tp1048
ag1010
ag1035
asg11
I1
sg12
(lp1049
g1047
asg14
F540.45165801048279
sg15
F540.72580409049988
sg16
F540.5013689994812
sg17
g966
sg22
g967
sg24
I10
sg25
I5
sa(dp1050
g4
I00
sg5
F397
sg6
(lp1051
g983
ag982
a(F162
F271
tp1052
a(F833
F858
tp1053
ag1009
asg11
I1
sg12
(lp1054
g1009
asg14
F541.40169095993042
sg15
F542.02925205230713
sg16
F541.81809902191162
sg17
g966
sg22
g967
sg24
I10
sg25
I5
sa(dp1055
g4
I00
sg5
F840
sg6
(lp1056
g1043
a(F384
F836
tp1057
asg11
I1
sg12
(lp1058
g1043
asg14
F542.7350480556488
sg15
F563.60168409347534
sg16
F543.60146903991699
sg17
g966
sg22
g967
sg24
I10
sg25
I2
sa(dp1059
g4
I00
sg5
F220
sg6
(lp1060
(F116
F689
tp1061
ag992
asg11
I1
sg12
(lp1062
g992
asg14
F564.28539109230042
sg15
F564.73709392547607
sg16
F564.53505492210388
sg17
g966
sg22
g967
sg24
I10
sg25
I2
sa(dp1063
g4
I00
sg5
F11
sg6
(lp1064
(F1019
F571
tp1065
asg11
I1
sg12
(lp1066
g1065
asg14
F565.40203905105591
sg15
F565.64755010604858
sg16
F565.43507790565491
sg17
g966
sg22
g967
sg24
I10
sg25
I1
sa(dp1067
g4
I00
sg5
F240
sg6
(lp1068
(F665
F522
tp1069
ag1053
a(F995
F109
tp1070
ag1014
asg11
I1
sg12
(lp1071
g1069
asg14
F566.35207605361938
sg15
F566.80504488945007
sg16
F566.61847400665283
sg17
g966
sg22
g967
sg24
I10
sg25
I4
saa(dp1072
g129
g130
sg131
g130
sg132
S'5'
sg133
g130
sa.